ARM GAS  /tmp/ccsm6ahi.s 			page 1


   1              		.cpu cortex-m4
   2              		.eabi_attribute 27, 1
   3              		.eabi_attribute 28, 1
   4              		.eabi_attribute 20, 1
   5              		.eabi_attribute 21, 1
   6              		.eabi_attribute 23, 3
   7              		.eabi_attribute 24, 1
   8              		.eabi_attribute 25, 1
   9              		.eabi_attribute 26, 1
  10              		.eabi_attribute 30, 1
  11              		.eabi_attribute 34, 1
  12              		.eabi_attribute 18, 4
  13              		.file	"stm32f3xx_hal_pwr.c"
  14              		.text
  15              		.section	.text.HAL_PWR_DeInit,"ax",%progbits
  16              		.align	1
  17              		.global	HAL_PWR_DeInit
  18              		.arch armv7e-m
  19              		.syntax unified
  20              		.thumb
  21              		.thumb_func
  22              		.fpu fpv4-sp-d16
  24              	HAL_PWR_DeInit:
  25              		@ args = 0, pretend = 0, frame = 0
  26              		@ frame_needed = 0, uses_anonymous_args = 0
  27              		@ link register save eliminated.
  28 0000 044B     		ldr	r3, .L2
  29 0002 1A69     		ldr	r2, [r3, #16]
  30 0004 42F08052 		orr	r2, r2, #268435456
  31 0008 1A61     		str	r2, [r3, #16]
  32 000a 1A69     		ldr	r2, [r3, #16]
  33 000c 22F08052 		bic	r2, r2, #268435456
  34 0010 1A61     		str	r2, [r3, #16]
  35 0012 7047     		bx	lr
  36              	.L3:
  37              		.align	2
  38              	.L2:
  39 0014 00100240 		.word	1073876992
  41              		.section	.text.HAL_PWR_EnableBkUpAccess,"ax",%progbits
  42              		.align	1
  43              		.global	HAL_PWR_EnableBkUpAccess
  44              		.syntax unified
  45              		.thumb
  46              		.thumb_func
  47              		.fpu fpv4-sp-d16
  49              	HAL_PWR_EnableBkUpAccess:
  50              		@ args = 0, pretend = 0, frame = 0
  51              		@ frame_needed = 0, uses_anonymous_args = 0
  52              		@ link register save eliminated.
  53 0000 024A     		ldr	r2, .L5
  54 0002 1368     		ldr	r3, [r2]
  55 0004 43F48073 		orr	r3, r3, #256
  56 0008 1360     		str	r3, [r2]
  57 000a 7047     		bx	lr
  58              	.L6:
  59              		.align	2
  60              	.L5:
ARM GAS  /tmp/ccsm6ahi.s 			page 2


  61 000c 00700040 		.word	1073770496
  63              		.section	.text.HAL_PWR_DisableBkUpAccess,"ax",%progbits
  64              		.align	1
  65              		.global	HAL_PWR_DisableBkUpAccess
  66              		.syntax unified
  67              		.thumb
  68              		.thumb_func
  69              		.fpu fpv4-sp-d16
  71              	HAL_PWR_DisableBkUpAccess:
  72              		@ args = 0, pretend = 0, frame = 0
  73              		@ frame_needed = 0, uses_anonymous_args = 0
  74              		@ link register save eliminated.
  75 0000 024A     		ldr	r2, .L8
  76 0002 1368     		ldr	r3, [r2]
  77 0004 23F48073 		bic	r3, r3, #256
  78 0008 1360     		str	r3, [r2]
  79 000a 7047     		bx	lr
  80              	.L9:
  81              		.align	2
  82              	.L8:
  83 000c 00700040 		.word	1073770496
  85              		.section	.text.HAL_PWR_EnableWakeUpPin,"ax",%progbits
  86              		.align	1
  87              		.global	HAL_PWR_EnableWakeUpPin
  88              		.syntax unified
  89              		.thumb
  90              		.thumb_func
  91              		.fpu fpv4-sp-d16
  93              	HAL_PWR_EnableWakeUpPin:
  94              		@ args = 0, pretend = 0, frame = 0
  95              		@ frame_needed = 0, uses_anonymous_args = 0
  96              		@ link register save eliminated.
  97 0000 024A     		ldr	r2, .L11
  98 0002 5368     		ldr	r3, [r2, #4]
  99 0004 0343     		orrs	r3, r3, r0
 100 0006 5360     		str	r3, [r2, #4]
 101 0008 7047     		bx	lr
 102              	.L12:
 103 000a 00BF     		.align	2
 104              	.L11:
 105 000c 00700040 		.word	1073770496
 107              		.section	.text.HAL_PWR_DisableWakeUpPin,"ax",%progbits
 108              		.align	1
 109              		.global	HAL_PWR_DisableWakeUpPin
 110              		.syntax unified
 111              		.thumb
 112              		.thumb_func
 113              		.fpu fpv4-sp-d16
 115              	HAL_PWR_DisableWakeUpPin:
 116              		@ args = 0, pretend = 0, frame = 0
 117              		@ frame_needed = 0, uses_anonymous_args = 0
 118              		@ link register save eliminated.
 119 0000 024A     		ldr	r2, .L14
 120 0002 5368     		ldr	r3, [r2, #4]
 121 0004 23EA0003 		bic	r3, r3, r0
 122 0008 5360     		str	r3, [r2, #4]
 123 000a 7047     		bx	lr
ARM GAS  /tmp/ccsm6ahi.s 			page 3


 124              	.L15:
 125              		.align	2
 126              	.L14:
 127 000c 00700040 		.word	1073770496
 129              		.section	.text.HAL_PWR_EnterSLEEPMode,"ax",%progbits
 130              		.align	1
 131              		.global	HAL_PWR_EnterSLEEPMode
 132              		.syntax unified
 133              		.thumb
 134              		.thumb_func
 135              		.fpu fpv4-sp-d16
 137              	HAL_PWR_EnterSLEEPMode:
 138              		@ args = 0, pretend = 0, frame = 0
 139              		@ frame_needed = 0, uses_anonymous_args = 0
 140              		@ link register save eliminated.
 141 0000 064A     		ldr	r2, .L20
 142 0002 1369     		ldr	r3, [r2, #16]
 143 0004 23F00403 		bic	r3, r3, #4
 144 0008 1361     		str	r3, [r2, #16]
 145 000a 0129     		cmp	r1, #1
 146 000c 03D0     		beq	.L19
 147              		.syntax unified
 148              	@ 300 "../Drivers/STM32F3xx_HAL_Driver/Src/stm32f3xx_hal_pwr.c" 1
 149 000e 40BF     		sev
 150              	@ 0 "" 2
 151              	@ 301 "../Drivers/STM32F3xx_HAL_Driver/Src/stm32f3xx_hal_pwr.c" 1
 152 0010 20BF     		wfe
 153              	@ 0 "" 2
 154              	@ 302 "../Drivers/STM32F3xx_HAL_Driver/Src/stm32f3xx_hal_pwr.c" 1
 155 0012 20BF     		wfe
 156              	@ 0 "" 2
 157              		.thumb
 158              		.syntax unified
 159 0014 7047     		bx	lr
 160              	.L19:
 161              		.syntax unified
 162              	@ 295 "../Drivers/STM32F3xx_HAL_Driver/Src/stm32f3xx_hal_pwr.c" 1
 163 0016 30BF     		wfi
 164              	@ 0 "" 2
 165              		.thumb
 166              		.syntax unified
 167 0018 7047     		bx	lr
 168              	.L21:
 169 001a 00BF     		.align	2
 170              	.L20:
 171 001c 00ED00E0 		.word	-536810240
 173              		.section	.text.HAL_PWR_EnterSTOPMode,"ax",%progbits
 174              		.align	1
 175              		.global	HAL_PWR_EnterSTOPMode
 176              		.syntax unified
 177              		.thumb
 178              		.thumb_func
 179              		.fpu fpv4-sp-d16
 181              	HAL_PWR_EnterSTOPMode:
 182              		@ args = 0, pretend = 0, frame = 0
 183              		@ frame_needed = 0, uses_anonymous_args = 0
 184              		@ link register save eliminated.
ARM GAS  /tmp/ccsm6ahi.s 			page 4


 185 0000 0B4A     		ldr	r2, .L26
 186 0002 1368     		ldr	r3, [r2]
 187 0004 23F00303 		bic	r3, r3, #3
 188 0008 0343     		orrs	r3, r3, r0
 189 000a 1360     		str	r3, [r2]
 190 000c 094A     		ldr	r2, .L26+4
 191 000e 1369     		ldr	r3, [r2, #16]
 192 0010 43F00403 		orr	r3, r3, #4
 193 0014 1361     		str	r3, [r2, #16]
 194 0016 0129     		cmp	r1, #1
 195 0018 08D0     		beq	.L25
 196              		.syntax unified
 197              	@ 357 "../Drivers/STM32F3xx_HAL_Driver/Src/stm32f3xx_hal_pwr.c" 1
 198 001a 40BF     		sev
 199              	@ 0 "" 2
 200              	@ 358 "../Drivers/STM32F3xx_HAL_Driver/Src/stm32f3xx_hal_pwr.c" 1
 201 001c 20BF     		wfe
 202              	@ 0 "" 2
 203              	@ 359 "../Drivers/STM32F3xx_HAL_Driver/Src/stm32f3xx_hal_pwr.c" 1
 204 001e 20BF     		wfe
 205              	@ 0 "" 2
 206              		.thumb
 207              		.syntax unified
 208              	.L24:
 209 0020 044A     		ldr	r2, .L26+4
 210 0022 1369     		ldr	r3, [r2, #16]
 211 0024 23F00403 		bic	r3, r3, #4
 212 0028 1361     		str	r3, [r2, #16]
 213 002a 7047     		bx	lr
 214              	.L25:
 215              		.syntax unified
 216              	@ 352 "../Drivers/STM32F3xx_HAL_Driver/Src/stm32f3xx_hal_pwr.c" 1
 217 002c 30BF     		wfi
 218              	@ 0 "" 2
 219              		.thumb
 220              		.syntax unified
 221 002e F7E7     		b	.L24
 222              	.L27:
 223              		.align	2
 224              	.L26:
 225 0030 00700040 		.word	1073770496
 226 0034 00ED00E0 		.word	-536810240
 228              		.section	.text.HAL_PWR_EnterSTANDBYMode,"ax",%progbits
 229              		.align	1
 230              		.global	HAL_PWR_EnterSTANDBYMode
 231              		.syntax unified
 232              		.thumb
 233              		.thumb_func
 234              		.fpu fpv4-sp-d16
 236              	HAL_PWR_EnterSTANDBYMode:
 237              		@ args = 0, pretend = 0, frame = 0
 238              		@ frame_needed = 0, uses_anonymous_args = 0
 239              		@ link register save eliminated.
 240 0000 054A     		ldr	r2, .L29
 241 0002 1368     		ldr	r3, [r2]
 242 0004 43F00203 		orr	r3, r3, #2
 243 0008 1360     		str	r3, [r2]
ARM GAS  /tmp/ccsm6ahi.s 			page 5


 244 000a 044A     		ldr	r2, .L29+4
 245 000c 1369     		ldr	r3, [r2, #16]
 246 000e 43F00403 		orr	r3, r3, #4
 247 0012 1361     		str	r3, [r2, #16]
 248              		.syntax unified
 249              	@ 388 "../Drivers/STM32F3xx_HAL_Driver/Src/stm32f3xx_hal_pwr.c" 1
 250 0014 30BF     		wfi
 251              	@ 0 "" 2
 252              		.thumb
 253              		.syntax unified
 254 0016 7047     		bx	lr
 255              	.L30:
 256              		.align	2
 257              	.L29:
 258 0018 00700040 		.word	1073770496
 259 001c 00ED00E0 		.word	-536810240
 261              		.section	.text.HAL_PWR_EnableSleepOnExit,"ax",%progbits
 262              		.align	1
 263              		.global	HAL_PWR_EnableSleepOnExit
 264              		.syntax unified
 265              		.thumb
 266              		.thumb_func
 267              		.fpu fpv4-sp-d16
 269              	HAL_PWR_EnableSleepOnExit:
 270              		@ args = 0, pretend = 0, frame = 0
 271              		@ frame_needed = 0, uses_anonymous_args = 0
 272              		@ link register save eliminated.
 273 0000 024A     		ldr	r2, .L32
 274 0002 1369     		ldr	r3, [r2, #16]
 275 0004 43F00203 		orr	r3, r3, #2
 276 0008 1361     		str	r3, [r2, #16]
 277 000a 7047     		bx	lr
 278              	.L33:
 279              		.align	2
 280              	.L32:
 281 000c 00ED00E0 		.word	-536810240
 283              		.section	.text.HAL_PWR_DisableSleepOnExit,"ax",%progbits
 284              		.align	1
 285              		.global	HAL_PWR_DisableSleepOnExit
 286              		.syntax unified
 287              		.thumb
 288              		.thumb_func
 289              		.fpu fpv4-sp-d16
 291              	HAL_PWR_DisableSleepOnExit:
 292              		@ args = 0, pretend = 0, frame = 0
 293              		@ frame_needed = 0, uses_anonymous_args = 0
 294              		@ link register save eliminated.
 295 0000 024A     		ldr	r2, .L35
 296 0002 1369     		ldr	r3, [r2, #16]
 297 0004 23F00203 		bic	r3, r3, #2
 298 0008 1361     		str	r3, [r2, #16]
 299 000a 7047     		bx	lr
 300              	.L36:
 301              		.align	2
 302              	.L35:
 303 000c 00ED00E0 		.word	-536810240
 305              		.section	.text.HAL_PWR_EnableSEVOnPend,"ax",%progbits
ARM GAS  /tmp/ccsm6ahi.s 			page 6


 306              		.align	1
 307              		.global	HAL_PWR_EnableSEVOnPend
 308              		.syntax unified
 309              		.thumb
 310              		.thumb_func
 311              		.fpu fpv4-sp-d16
 313              	HAL_PWR_EnableSEVOnPend:
 314              		@ args = 0, pretend = 0, frame = 0
 315              		@ frame_needed = 0, uses_anonymous_args = 0
 316              		@ link register save eliminated.
 317 0000 024A     		ldr	r2, .L38
 318 0002 1369     		ldr	r3, [r2, #16]
 319 0004 43F01003 		orr	r3, r3, #16
 320 0008 1361     		str	r3, [r2, #16]
 321 000a 7047     		bx	lr
 322              	.L39:
 323              		.align	2
 324              	.L38:
 325 000c 00ED00E0 		.word	-536810240
 327              		.section	.text.HAL_PWR_DisableSEVOnPend,"ax",%progbits
 328              		.align	1
 329              		.global	HAL_PWR_DisableSEVOnPend
 330              		.syntax unified
 331              		.thumb
 332              		.thumb_func
 333              		.fpu fpv4-sp-d16
 335              	HAL_PWR_DisableSEVOnPend:
 336              		@ args = 0, pretend = 0, frame = 0
 337              		@ frame_needed = 0, uses_anonymous_args = 0
 338              		@ link register save eliminated.
 339 0000 024A     		ldr	r2, .L41
 340 0002 1369     		ldr	r3, [r2, #16]
 341 0004 23F01003 		bic	r3, r3, #16
 342 0008 1361     		str	r3, [r2, #16]
 343 000a 7047     		bx	lr
 344              	.L42:
 345              		.align	2
 346              	.L41:
 347 000c 00ED00E0 		.word	-536810240
 349              		.ident	"GCC: (15:9-2019-q4-0ubuntu1) 9.2.1 20191025 (release) [ARM/arm-9-branch revision 277599]"
ARM GAS  /tmp/ccsm6ahi.s 			page 7

