ARM GAS  /tmp/cc2fqQvs.s 			page 1


   1              		.cpu cortex-m4
   2              		.eabi_attribute 27, 1
   3              		.eabi_attribute 28, 1
   4              		.eabi_attribute 20, 1
   5              		.eabi_attribute 21, 1
   6              		.eabi_attribute 23, 3
   7              		.eabi_attribute 24, 1
   8              		.eabi_attribute 25, 1
   9              		.eabi_attribute 26, 1
  10              		.eabi_attribute 30, 1
  11              		.eabi_attribute 34, 1
  12              		.eabi_attribute 18, 4
  13              		.file	"stm32f3xx_hal_exti.c"
  14              		.text
  15              		.section	.text.HAL_EXTI_SetConfigLine,"ax",%progbits
  16              		.align	1
  17              		.global	HAL_EXTI_SetConfigLine
  18              		.arch armv7e-m
  19              		.syntax unified
  20              		.thumb
  21              		.thumb_func
  22              		.fpu fpv4-sp-d16
  24              	HAL_EXTI_SetConfigLine:
  25              		@ args = 0, pretend = 0, frame = 0
  26              		@ frame_needed = 0, uses_anonymous_args = 0
  27              		@ link register save eliminated.
  28 0000 0028     		cmp	r0, #0
  29 0002 5ED0     		beq	.L12
  30 0004 0029     		cmp	r1, #0
  31 0006 5ED0     		beq	.L13
  32 0008 F0B4     		push	{r4, r5, r6, r7}
  33 000a 0A68     		ldr	r2, [r1]
  34 000c 0260     		str	r2, [r0]
  35 000e C2F30043 		ubfx	r3, r2, #16, #1
  36 0012 02F01F04 		and	r4, r2, #31
  37 0016 0120     		movs	r0, #1
  38 0018 A040     		lsls	r0, r0, r4
  39 001a 12F0007F 		tst	r2, #33554432
  40 001e 1AD0     		beq	.L3
  41 0020 5D01     		lsls	r5, r3, #5
  42 0022 2A4F     		ldr	r7, .L19
  43 0024 55F807C0 		ldr	ip, [r5, r7]
  44 0028 8E68     		ldr	r6, [r1, #8]
  45 002a 16F0010F 		tst	r6, #1
  46 002e 29D0     		beq	.L4
  47 0030 4CEA0006 		orr	r6, ip, r0
  48              	.L5:
  49 0034 EE51     		str	r6, [r5, r7]
  50 0036 264F     		ldr	r7, .L19+4
  51 0038 55F807C0 		ldr	ip, [r5, r7]
  52 003c 8E68     		ldr	r6, [r1, #8]
  53 003e 16F0020F 		tst	r6, #2
  54 0042 22D0     		beq	.L6
  55 0044 4CEA0006 		orr	r6, ip, r0
  56              	.L7:
  57 0048 EE51     		str	r6, [r5, r7]
  58 004a 0D68     		ldr	r5, [r1]
ARM GAS  /tmp/cc2fqQvs.s 			page 2


  59 004c 05F0C065 		and	r5, r5, #100663296
  60 0050 B5F1C06F 		cmp	r5, #100663296
  61 0054 1CD0     		beq	.L18
  62              	.L3:
  63 0056 5B01     		lsls	r3, r3, #5
  64 0058 03F18042 		add	r2, r3, #1073741824
  65 005c 02F58232 		add	r2, r2, #66560
  66 0060 1468     		ldr	r4, [r2]
  67 0062 4D68     		ldr	r5, [r1, #4]
  68 0064 15F0010F 		tst	r5, #1
  69 0068 25D0     		beq	.L8
  70 006a 0443     		orrs	r4, r4, r0
  71              	.L9:
  72 006c 1460     		str	r4, [r2]
  73 006e 194C     		ldr	r4, .L19+8
  74 0070 1A59     		ldr	r2, [r3, r4]
  75 0072 4968     		ldr	r1, [r1, #4]
  76 0074 11F0020F 		tst	r1, #2
  77 0078 20D0     		beq	.L10
  78 007a 1043     		orrs	r0, r0, r2
  79              	.L11:
  80 007c 1851     		str	r0, [r3, r4]
  81 007e 0020     		movs	r0, #0
  82 0080 F0BC     		pop	{r4, r5, r6, r7}
  83 0082 7047     		bx	lr
  84              	.L4:
  85 0084 2CEA0006 		bic	r6, ip, r0
  86 0088 D4E7     		b	.L5
  87              	.L6:
  88 008a 2CEA0006 		bic	r6, ip, r0
  89 008e DBE7     		b	.L7
  90              	.L18:
  91 0090 A408     		lsrs	r4, r4, #2
  92 0092 114F     		ldr	r7, .L19+12
  93 0094 0234     		adds	r4, r4, #2
  94 0096 57F82460 		ldr	r6, [r7, r4, lsl #2]
  95 009a 02F00302 		and	r2, r2, #3
  96 009e 9200     		lsls	r2, r2, #2
  97 00a0 0F25     		movs	r5, #15
  98 00a2 9540     		lsls	r5, r5, r2
  99 00a4 26EA0506 		bic	r6, r6, r5
 100 00a8 CD68     		ldr	r5, [r1, #12]
 101 00aa 05FA02F2 		lsl	r2, r5, r2
 102 00ae 3243     		orrs	r2, r2, r6
 103 00b0 47F82420 		str	r2, [r7, r4, lsl #2]
 104 00b4 CFE7     		b	.L3
 105              	.L8:
 106 00b6 24EA0004 		bic	r4, r4, r0
 107 00ba D7E7     		b	.L9
 108              	.L10:
 109 00bc 22EA0000 		bic	r0, r2, r0
 110 00c0 DCE7     		b	.L11
 111              	.L12:
 112 00c2 0120     		movs	r0, #1
 113 00c4 7047     		bx	lr
 114              	.L13:
 115 00c6 0120     		movs	r0, #1
ARM GAS  /tmp/cc2fqQvs.s 			page 3


 116 00c8 7047     		bx	lr
 117              	.L20:
 118 00ca 00BF     		.align	2
 119              	.L19:
 120 00cc 08040140 		.word	1073808392
 121 00d0 0C040140 		.word	1073808396
 122 00d4 04040140 		.word	1073808388
 123 00d8 00000140 		.word	1073807360
 125              		.section	.text.HAL_EXTI_GetConfigLine,"ax",%progbits
 126              		.align	1
 127              		.global	HAL_EXTI_GetConfigLine
 128              		.syntax unified
 129              		.thumb
 130              		.thumb_func
 131              		.fpu fpv4-sp-d16
 133              	HAL_EXTI_GetConfigLine:
 134              		@ args = 0, pretend = 0, frame = 0
 135              		@ frame_needed = 0, uses_anonymous_args = 0
 136              		@ link register save eliminated.
 137 0000 0028     		cmp	r0, #0
 138 0002 49D0     		beq	.L28
 139 0004 0029     		cmp	r1, #0
 140 0006 49D0     		beq	.L29
 141 0008 30B4     		push	{r4, r5}
 142 000a 0368     		ldr	r3, [r0]
 143 000c 0B60     		str	r3, [r1]
 144 000e C3F30040 		ubfx	r0, r3, #16, #1
 145 0012 03F01F05 		and	r5, r3, #31
 146 0016 0122     		movs	r2, #1
 147 0018 AA40     		lsls	r2, r2, r5
 148 001a 4001     		lsls	r0, r0, #5
 149 001c 00F18044 		add	r4, r0, #1073741824
 150 0020 04F58234 		add	r4, r4, #66560
 151 0024 2468     		ldr	r4, [r4]
 152 0026 2242     		tst	r2, r4
 153 0028 24D0     		beq	.L23
 154 002a 0124     		movs	r4, #1
 155 002c 4C60     		str	r4, [r1, #4]
 156              	.L24:
 157 002e 1E4C     		ldr	r4, .L37
 158 0030 0459     		ldr	r4, [r0, r4]
 159 0032 2242     		tst	r2, r4
 160 0034 03D0     		beq	.L25
 161 0036 4C68     		ldr	r4, [r1, #4]
 162 0038 44F00204 		orr	r4, r4, #2
 163 003c 4C60     		str	r4, [r1, #4]
 164              	.L25:
 165 003e 0024     		movs	r4, #0
 166 0040 8C60     		str	r4, [r1, #8]
 167 0042 CC60     		str	r4, [r1, #12]
 168 0044 13F0007F 		tst	r3, #33554432
 169 0048 2AD0     		beq	.L30
 170 004a 184C     		ldr	r4, .L37+4
 171 004c 0459     		ldr	r4, [r0, r4]
 172 004e 2242     		tst	r2, r4
 173 0050 01D0     		beq	.L26
 174 0052 0124     		movs	r4, #1
ARM GAS  /tmp/cc2fqQvs.s 			page 4


 175 0054 8C60     		str	r4, [r1, #8]
 176              	.L26:
 177 0056 164C     		ldr	r4, .L37+8
 178 0058 0059     		ldr	r0, [r0, r4]
 179 005a 0242     		tst	r2, r0
 180 005c 03D0     		beq	.L27
 181 005e 8A68     		ldr	r2, [r1, #8]
 182 0060 42F00202 		orr	r2, r2, #2
 183 0064 8A60     		str	r2, [r1, #8]
 184              	.L27:
 185 0066 03F0C063 		and	r3, r3, #100663296
 186 006a B3F1C06F 		cmp	r3, #100663296
 187 006e 04D0     		beq	.L36
 188 0070 0020     		movs	r0, #0
 189 0072 16E0     		b	.L22
 190              	.L23:
 191 0074 0024     		movs	r4, #0
 192 0076 4C60     		str	r4, [r1, #4]
 193 0078 D9E7     		b	.L24
 194              	.L36:
 195 007a AB08     		lsrs	r3, r5, #2
 196 007c 0233     		adds	r3, r3, #2
 197 007e 0D4A     		ldr	r2, .L37+12
 198 0080 52F82320 		ldr	r2, [r2, r3, lsl #2]
 199 0084 EB43     		mvns	r3, r5
 200 0086 03F00303 		and	r3, r3, #3
 201 008a 9B00     		lsls	r3, r3, #2
 202 008c 02FA03F3 		lsl	r3, r2, r3
 203 0090 1B0E     		lsrs	r3, r3, #24
 204 0092 CB60     		str	r3, [r1, #12]
 205 0094 0020     		movs	r0, #0
 206 0096 04E0     		b	.L22
 207              	.L28:
 208 0098 0120     		movs	r0, #1
 209 009a 7047     		bx	lr
 210              	.L29:
 211 009c 0120     		movs	r0, #1
 212 009e 7047     		bx	lr
 213              	.L30:
 214 00a0 0020     		movs	r0, #0
 215              	.L22:
 216 00a2 30BC     		pop	{r4, r5}
 217 00a4 7047     		bx	lr
 218              	.L38:
 219 00a6 00BF     		.align	2
 220              	.L37:
 221 00a8 04040140 		.word	1073808388
 222 00ac 08040140 		.word	1073808392
 223 00b0 0C040140 		.word	1073808396
 224 00b4 00000140 		.word	1073807360
 226              		.section	.text.HAL_EXTI_ClearConfigLine,"ax",%progbits
 227              		.align	1
 228              		.global	HAL_EXTI_ClearConfigLine
 229              		.syntax unified
 230              		.thumb
 231              		.thumb_func
 232              		.fpu fpv4-sp-d16
ARM GAS  /tmp/cc2fqQvs.s 			page 5


 234              	HAL_EXTI_ClearConfigLine:
 235              		@ args = 0, pretend = 0, frame = 0
 236              		@ frame_needed = 0, uses_anonymous_args = 0
 237              		@ link register save eliminated.
 238 0000 0028     		cmp	r0, #0
 239 0002 3CD0     		beq	.L41
 240 0004 F0B4     		push	{r4, r5, r6, r7}
 241 0006 0546     		mov	r5, r0
 242 0008 0468     		ldr	r4, [r0]
 243 000a C4F30043 		ubfx	r3, r4, #16, #1
 244 000e 04F01F06 		and	r6, r4, #31
 245 0012 0122     		movs	r2, #1
 246 0014 B240     		lsls	r2, r2, r6
 247 0016 5B01     		lsls	r3, r3, #5
 248 0018 03F18041 		add	r1, r3, #1073741824
 249 001c 01F58231 		add	r1, r1, #66560
 250 0020 0868     		ldr	r0, [r1]
 251 0022 D743     		mvns	r7, r2
 252 0024 20EA0200 		bic	r0, r0, r2
 253 0028 0860     		str	r0, [r1]
 254 002a 1748     		ldr	r0, .L49
 255 002c 1958     		ldr	r1, [r3, r0]
 256 002e 21EA0202 		bic	r2, r1, r2
 257 0032 1A50     		str	r2, [r3, r0]
 258 0034 2A68     		ldr	r2, [r5]
 259 0036 12F0007F 		tst	r2, #33554432
 260 003a 22D0     		beq	.L42
 261 003c 1349     		ldr	r1, .L49+4
 262 003e 5A58     		ldr	r2, [r3, r1]
 263 0040 3A40     		ands	r2, r2, r7
 264 0042 5A50     		str	r2, [r3, r1]
 265 0044 124A     		ldr	r2, .L49+8
 266 0046 9958     		ldr	r1, [r3, r2]
 267 0048 0F40     		ands	r7, r7, r1
 268 004a 9F50     		str	r7, [r3, r2]
 269 004c 2B68     		ldr	r3, [r5]
 270 004e 03F0C063 		and	r3, r3, #100663296
 271 0052 B3F1C06F 		cmp	r3, #100663296
 272 0056 01D0     		beq	.L48
 273 0058 0020     		movs	r0, #0
 274 005a 13E0     		b	.L40
 275              	.L48:
 276 005c B608     		lsrs	r6, r6, #2
 277 005e 0D49     		ldr	r1, .L49+12
 278 0060 0236     		adds	r6, r6, #2
 279 0062 51F82630 		ldr	r3, [r1, r6, lsl #2]
 280 0066 04F00304 		and	r4, r4, #3
 281 006a A400     		lsls	r4, r4, #2
 282 006c 0F22     		movs	r2, #15
 283 006e 02FA04F4 		lsl	r4, r2, r4
 284 0072 23EA0404 		bic	r4, r3, r4
 285 0076 41F82640 		str	r4, [r1, r6, lsl #2]
 286 007a 0020     		movs	r0, #0
 287 007c 02E0     		b	.L40
 288              	.L41:
 289 007e 0120     		movs	r0, #1
 290 0080 7047     		bx	lr
ARM GAS  /tmp/cc2fqQvs.s 			page 6


 291              	.L42:
 292 0082 0020     		movs	r0, #0
 293              	.L40:
 294 0084 F0BC     		pop	{r4, r5, r6, r7}
 295 0086 7047     		bx	lr
 296              	.L50:
 297              		.align	2
 298              	.L49:
 299 0088 04040140 		.word	1073808388
 300 008c 08040140 		.word	1073808392
 301 0090 0C040140 		.word	1073808396
 302 0094 00000140 		.word	1073807360
 304              		.section	.text.HAL_EXTI_RegisterCallback,"ax",%progbits
 305              		.align	1
 306              		.global	HAL_EXTI_RegisterCallback
 307              		.syntax unified
 308              		.thumb
 309              		.thumb_func
 310              		.fpu fpv4-sp-d16
 312              	HAL_EXTI_RegisterCallback:
 313              		@ args = 0, pretend = 0, frame = 0
 314              		@ frame_needed = 0, uses_anonymous_args = 0
 315              		@ link register save eliminated.
 316 0000 0346     		mov	r3, r0
 317 0002 0846     		mov	r0, r1
 318 0004 09B9     		cbnz	r1, .L53
 319 0006 5A60     		str	r2, [r3, #4]
 320 0008 7047     		bx	lr
 321              	.L53:
 322 000a 0120     		movs	r0, #1
 323 000c 7047     		bx	lr
 325              		.section	.text.HAL_EXTI_GetHandle,"ax",%progbits
 326              		.align	1
 327              		.global	HAL_EXTI_GetHandle
 328              		.syntax unified
 329              		.thumb
 330              		.thumb_func
 331              		.fpu fpv4-sp-d16
 333              	HAL_EXTI_GetHandle:
 334              		@ args = 0, pretend = 0, frame = 0
 335              		@ frame_needed = 0, uses_anonymous_args = 0
 336              		@ link register save eliminated.
 337 0000 10B1     		cbz	r0, .L56
 338 0002 0160     		str	r1, [r0]
 339 0004 0020     		movs	r0, #0
 340 0006 7047     		bx	lr
 341              	.L56:
 342 0008 0120     		movs	r0, #1
 343 000a 7047     		bx	lr
 345              		.section	.text.HAL_EXTI_IRQHandler,"ax",%progbits
 346              		.align	1
 347              		.global	HAL_EXTI_IRQHandler
 348              		.syntax unified
 349              		.thumb
 350              		.thumb_func
 351              		.fpu fpv4-sp-d16
 353              	HAL_EXTI_IRQHandler:
ARM GAS  /tmp/cc2fqQvs.s 			page 7


 354              		@ args = 0, pretend = 0, frame = 0
 355              		@ frame_needed = 0, uses_anonymous_args = 0
 356 0000 08B5     		push	{r3, lr}
 357 0002 0368     		ldr	r3, [r0]
 358 0004 C3F30041 		ubfx	r1, r3, #16, #1
 359 0008 03F01F03 		and	r3, r3, #31
 360 000c 0122     		movs	r2, #1
 361 000e 02FA03F3 		lsl	r3, r2, r3
 362 0012 4A01     		lsls	r2, r1, #5
 363 0014 0449     		ldr	r1, .L60
 364 0016 5258     		ldr	r2, [r2, r1]
 365 0018 1A42     		tst	r2, r3
 366 001a 04D0     		beq	.L57
 367 001c 034A     		ldr	r2, .L60+4
 368 001e 5361     		str	r3, [r2, #20]
 369 0020 4368     		ldr	r3, [r0, #4]
 370 0022 03B1     		cbz	r3, .L57
 371 0024 9847     		blx	r3
 372              	.L57:
 373 0026 08BD     		pop	{r3, pc}
 374              	.L61:
 375              		.align	2
 376              	.L60:
 377 0028 14040140 		.word	1073808404
 378 002c 00040140 		.word	1073808384
 380              		.section	.text.HAL_EXTI_GetPending,"ax",%progbits
 381              		.align	1
 382              		.global	HAL_EXTI_GetPending
 383              		.syntax unified
 384              		.thumb
 385              		.thumb_func
 386              		.fpu fpv4-sp-d16
 388              	HAL_EXTI_GetPending:
 389              		@ args = 0, pretend = 0, frame = 0
 390              		@ frame_needed = 0, uses_anonymous_args = 0
 391              		@ link register save eliminated.
 392 0000 0368     		ldr	r3, [r0]
 393 0002 C3F30041 		ubfx	r1, r3, #16, #1
 394 0006 03F01F03 		and	r3, r3, #31
 395 000a 0120     		movs	r0, #1
 396 000c 00FA03F2 		lsl	r2, r0, r3
 397 0010 4901     		lsls	r1, r1, #5
 398 0012 0248     		ldr	r0, .L63
 399 0014 0858     		ldr	r0, [r1, r0]
 400 0016 1040     		ands	r0, r0, r2
 401 0018 D840     		lsrs	r0, r0, r3
 402 001a 7047     		bx	lr
 403              	.L64:
 404              		.align	2
 405              	.L63:
 406 001c 14040140 		.word	1073808404
 408              		.section	.text.HAL_EXTI_ClearPending,"ax",%progbits
 409              		.align	1
 410              		.global	HAL_EXTI_ClearPending
 411              		.syntax unified
 412              		.thumb
 413              		.thumb_func
ARM GAS  /tmp/cc2fqQvs.s 			page 8


 414              		.fpu fpv4-sp-d16
 416              	HAL_EXTI_ClearPending:
 417              		@ args = 0, pretend = 0, frame = 0
 418              		@ frame_needed = 0, uses_anonymous_args = 0
 419              		@ link register save eliminated.
 420 0000 0368     		ldr	r3, [r0]
 421 0002 C3F30042 		ubfx	r2, r3, #16, #1
 422 0006 03F01F03 		and	r3, r3, #31
 423 000a 0121     		movs	r1, #1
 424 000c 01FA03F3 		lsl	r3, r1, r3
 425 0010 5201     		lsls	r2, r2, #5
 426 0012 0149     		ldr	r1, .L66
 427 0014 5350     		str	r3, [r2, r1]
 428 0016 7047     		bx	lr
 429              	.L67:
 430              		.align	2
 431              	.L66:
 432 0018 14040140 		.word	1073808404
 434              		.section	.text.HAL_EXTI_GenerateSWI,"ax",%progbits
 435              		.align	1
 436              		.global	HAL_EXTI_GenerateSWI
 437              		.syntax unified
 438              		.thumb
 439              		.thumb_func
 440              		.fpu fpv4-sp-d16
 442              	HAL_EXTI_GenerateSWI:
 443              		@ args = 0, pretend = 0, frame = 0
 444              		@ frame_needed = 0, uses_anonymous_args = 0
 445              		@ link register save eliminated.
 446 0000 0368     		ldr	r3, [r0]
 447 0002 C3F30042 		ubfx	r2, r3, #16, #1
 448 0006 03F01F03 		and	r3, r3, #31
 449 000a 0121     		movs	r1, #1
 450 000c 01FA03F3 		lsl	r3, r1, r3
 451 0010 5201     		lsls	r2, r2, #5
 452 0012 0149     		ldr	r1, .L69
 453 0014 5350     		str	r3, [r2, r1]
 454 0016 7047     		bx	lr
 455              	.L70:
 456              		.align	2
 457              	.L69:
 458 0018 10040140 		.word	1073808400
 460              		.ident	"GCC: (15:9-2019-q4-0ubuntu1) 9.2.1 20191025 (release) [ARM/arm-9-branch revision 277599]"
ARM GAS  /tmp/cc2fqQvs.s 			page 9

