ARM GAS  /tmp/ccD0QyxT.s 			page 1


   1              		.cpu cortex-m4
   2              		.eabi_attribute 27, 1
   3              		.eabi_attribute 28, 1
   4              		.eabi_attribute 20, 1
   5              		.eabi_attribute 21, 1
   6              		.eabi_attribute 23, 3
   7              		.eabi_attribute 24, 1
   8              		.eabi_attribute 25, 1
   9              		.eabi_attribute 26, 1
  10              		.eabi_attribute 30, 1
  11              		.eabi_attribute 34, 1
  12              		.eabi_attribute 18, 4
  13              		.file	"stm32f3xx_hal_rcc.c"
  14              		.text
  15              		.section	.text.HAL_RCC_DeInit,"ax",%progbits
  16              		.align	1
  17              		.global	HAL_RCC_DeInit
  18              		.arch armv7e-m
  19              		.syntax unified
  20              		.thumb
  21              		.thumb_func
  22              		.fpu fpv4-sp-d16
  24              	HAL_RCC_DeInit:
  25              		@ args = 0, pretend = 0, frame = 0
  26              		@ frame_needed = 0, uses_anonymous_args = 0
  27 0000 38B5     		push	{r3, r4, r5, lr}
  28 0002 364A     		ldr	r2, .L18
  29 0004 1368     		ldr	r3, [r2]
  30 0006 43F00103 		orr	r3, r3, #1
  31 000a 1360     		str	r3, [r2]
  32 000c FFF7FEFF 		bl	HAL_GetTick
  33 0010 0446     		mov	r4, r0
  34              	.L2:
  35 0012 324B     		ldr	r3, .L18
  36 0014 1B68     		ldr	r3, [r3]
  37 0016 13F0020F 		tst	r3, #2
  38 001a 07D1     		bne	.L14
  39 001c FFF7FEFF 		bl	HAL_GetTick
  40 0020 001B     		subs	r0, r0, r4
  41 0022 0228     		cmp	r0, #2
  42 0024 F5D9     		bls	.L2
  43 0026 0324     		movs	r4, #3
  44              	.L3:
  45 0028 2046     		mov	r0, r4
  46 002a 38BD     		pop	{r3, r4, r5, pc}
  47              	.L14:
  48 002c 2B4A     		ldr	r2, .L18
  49 002e 1368     		ldr	r3, [r2]
  50 0030 23F0F803 		bic	r3, r3, #248
  51 0034 43F08003 		orr	r3, r3, #128
  52 0038 1360     		str	r3, [r2]
  53 003a 5168     		ldr	r1, [r2, #4]
  54 003c 284B     		ldr	r3, .L18+4
  55 003e 0B40     		ands	r3, r3, r1
  56 0040 5360     		str	r3, [r2, #4]
  57 0042 FFF7FEFF 		bl	HAL_GetTick
  58 0046 0446     		mov	r4, r0
ARM GAS  /tmp/ccD0QyxT.s 			page 2


  59              	.L5:
  60 0048 244B     		ldr	r3, .L18
  61 004a 5B68     		ldr	r3, [r3, #4]
  62 004c 13F00C0F 		tst	r3, #12
  63 0050 08D0     		beq	.L15
  64 0052 FFF7FEFF 		bl	HAL_GetTick
  65 0056 001B     		subs	r0, r0, r4
  66 0058 41F28833 		movw	r3, #5000
  67 005c 9842     		cmp	r0, r3
  68 005e F3D9     		bls	.L5
  69 0060 0324     		movs	r4, #3
  70 0062 E1E7     		b	.L3
  71              	.L15:
  72 0064 1F4B     		ldr	r3, .L18+8
  73 0066 204A     		ldr	r2, .L18+12
  74 0068 1A60     		str	r2, [r3]
  75 006a 204B     		ldr	r3, .L18+16
  76 006c 1868     		ldr	r0, [r3]
  77 006e FFF7FEFF 		bl	HAL_InitTick
  78 0072 0446     		mov	r4, r0
  79 0074 08B1     		cbz	r0, .L16
  80 0076 0124     		movs	r4, #1
  81 0078 D6E7     		b	.L3
  82              	.L16:
  83 007a 184A     		ldr	r2, .L18
  84 007c 1368     		ldr	r3, [r2]
  85 007e 23F08473 		bic	r3, r3, #17301504
  86 0082 23F48033 		bic	r3, r3, #65536
  87 0086 1360     		str	r3, [r2]
  88 0088 1368     		ldr	r3, [r2]
  89 008a 23F48023 		bic	r3, r3, #262144
  90 008e 1360     		str	r3, [r2]
  91 0090 FFF7FEFF 		bl	HAL_GetTick
  92 0094 0546     		mov	r5, r0
  93              	.L7:
  94 0096 114B     		ldr	r3, .L18
  95 0098 1B68     		ldr	r3, [r3]
  96 009a 13F0007F 		tst	r3, #33554432
  97 009e 06D0     		beq	.L17
  98 00a0 FFF7FEFF 		bl	HAL_GetTick
  99 00a4 401B     		subs	r0, r0, r5
 100 00a6 0228     		cmp	r0, #2
 101 00a8 F5D9     		bls	.L7
 102 00aa 0324     		movs	r4, #3
 103 00ac BCE7     		b	.L3
 104              	.L17:
 105 00ae 0B4B     		ldr	r3, .L18
 106 00b0 0022     		movs	r2, #0
 107 00b2 5A60     		str	r2, [r3, #4]
 108 00b4 DA62     		str	r2, [r3, #44]
 109 00b6 1A63     		str	r2, [r3, #48]
 110 00b8 9968     		ldr	r1, [r3, #8]
 111 00ba 41F41F01 		orr	r1, r1, #10420224
 112 00be 9960     		str	r1, [r3, #8]
 113 00c0 9A60     		str	r2, [r3, #8]
 114 00c2 4FF08072 		mov	r2, #16777216
 115              		.syntax unified
ARM GAS  /tmp/ccD0QyxT.s 			page 3


 116              	@ 988 "../Drivers/CMSIS/Include/cmsis_gcc.h" 1
 117 00c6 92FAA2F2 		rbit r2, r2
 118              	@ 0 "" 2
 119              		.thumb
 120              		.syntax unified
 121 00ca B2FA82F2 		clz	r2, r2
 122 00ce 084B     		ldr	r3, .L18+20
 123 00d0 1344     		add	r3, r3, r2
 124 00d2 9B00     		lsls	r3, r3, #2
 125 00d4 0122     		movs	r2, #1
 126 00d6 1A60     		str	r2, [r3]
 127 00d8 A6E7     		b	.L3
 128              	.L19:
 129 00da 00BF     		.align	2
 130              	.L18:
 131 00dc 00100240 		.word	1073876992
 132 00e0 0CC0FFF8 		.word	-117456884
 133 00e4 00000000 		.word	SystemCoreClock
 134 00e8 00127A00 		.word	8000000
 135 00ec 00000000 		.word	uwTickPrio
 136 00f0 20819010 		.word	277905696
 138              		.section	.text.HAL_RCC_OscConfig,"ax",%progbits
 139              		.align	1
 140              		.global	HAL_RCC_OscConfig
 141              		.syntax unified
 142              		.thumb
 143              		.thumb_func
 144              		.fpu fpv4-sp-d16
 146              	HAL_RCC_OscConfig:
 147              		@ args = 0, pretend = 0, frame = 8
 148              		@ frame_needed = 0, uses_anonymous_args = 0
 149 0000 0028     		cmp	r0, #0
 150 0002 00F00183 		beq	.L94
 151 0006 70B5     		push	{r4, r5, r6, lr}
 152 0008 82B0     		sub	sp, sp, #8
 153 000a 0446     		mov	r4, r0
 154 000c 0368     		ldr	r3, [r0]
 155 000e 13F0010F 		tst	r3, #1
 156 0012 3BD0     		beq	.L22
 157 0014 B54B     		ldr	r3, .L132
 158 0016 5B68     		ldr	r3, [r3, #4]
 159 0018 03F00C03 		and	r3, r3, #12
 160 001c 042B     		cmp	r3, #4
 161 001e 1ED0     		beq	.L23
 162 0020 B24B     		ldr	r3, .L132
 163 0022 5B68     		ldr	r3, [r3, #4]
 164 0024 03F00C03 		and	r3, r3, #12
 165 0028 082B     		cmp	r3, #8
 166 002a 13D0     		beq	.L118
 167              	.L24:
 168 002c 6368     		ldr	r3, [r4, #4]
 169 002e B3F5803F 		cmp	r3, #65536
 170 0032 68D0     		beq	.L119
 171 0034 002B     		cmp	r3, #0
 172 0036 40F09280 		bne	.L29
 173 003a 03F18043 		add	r3, r3, #1073741824
 174 003e 03F50433 		add	r3, r3, #135168
ARM GAS  /tmp/ccD0QyxT.s 			page 4


 175 0042 1A68     		ldr	r2, [r3]
 176 0044 22F48032 		bic	r2, r2, #65536
 177 0048 1A60     		str	r2, [r3]
 178 004a 1A68     		ldr	r2, [r3]
 179 004c 22F48022 		bic	r2, r2, #262144
 180 0050 1A60     		str	r2, [r3]
 181 0052 5DE0     		b	.L28
 182              	.L118:
 183 0054 A54B     		ldr	r3, .L132
 184 0056 5B68     		ldr	r3, [r3, #4]
 185 0058 13F4803F 		tst	r3, #65536
 186 005c E6D0     		beq	.L24
 187              	.L23:
 188 005e 4FF40033 		mov	r3, #131072
 189              		.syntax unified
 190              	@ 988 "../Drivers/CMSIS/Include/cmsis_gcc.h" 1
 191 0062 93FAA3F3 		rbit r3, r3
 192              	@ 0 "" 2
 193              		.thumb
 194              		.syntax unified
 195 0066 A14B     		ldr	r3, .L132
 196 0068 1968     		ldr	r1, [r3]
 197 006a 4FF40033 		mov	r3, #131072
 198              		.syntax unified
 199              	@ 988 "../Drivers/CMSIS/Include/cmsis_gcc.h" 1
 200 006e 93FAA3F3 		rbit r3, r3
 201              	@ 0 "" 2
 202              		.thumb
 203              		.syntax unified
 204 0072 B3FA83F3 		clz	r3, r3
 205 0076 03F01F03 		and	r3, r3, #31
 206 007a 0122     		movs	r2, #1
 207 007c 02FA03F3 		lsl	r3, r2, r3
 208 0080 0B42     		tst	r3, r1
 209 0082 03D0     		beq	.L22
 210 0084 6368     		ldr	r3, [r4, #4]
 211 0086 002B     		cmp	r3, #0
 212 0088 00F0C082 		beq	.L120
 213              	.L22:
 214 008c 2368     		ldr	r3, [r4]
 215 008e 13F0020F 		tst	r3, #2
 216 0092 00F0C580 		beq	.L40
 217 0096 954B     		ldr	r3, .L132
 218 0098 5B68     		ldr	r3, [r3, #4]
 219 009a 13F00C0F 		tst	r3, #12
 220 009e 00F09C80 		beq	.L41
 221 00a2 924B     		ldr	r3, .L132
 222 00a4 5B68     		ldr	r3, [r3, #4]
 223 00a6 03F00C03 		and	r3, r3, #12
 224 00aa 082B     		cmp	r3, #8
 225 00ac 00F08F80 		beq	.L121
 226              	.L42:
 227 00b0 2369     		ldr	r3, [r4, #16]
 228 00b2 002B     		cmp	r3, #0
 229 00b4 00F0F280 		beq	.L46
 230 00b8 0122     		movs	r2, #1
 231              		.syntax unified
ARM GAS  /tmp/ccD0QyxT.s 			page 5


 232              	@ 988 "../Drivers/CMSIS/Include/cmsis_gcc.h" 1
 233 00ba 92FAA2F3 		rbit r3, r2
 234              	@ 0 "" 2
 235              		.thumb
 236              		.syntax unified
 237 00be B3FA83F3 		clz	r3, r3
 238 00c2 03F18453 		add	r3, r3, #276824064
 239 00c6 03F58413 		add	r3, r3, #1081344
 240 00ca 9B00     		lsls	r3, r3, #2
 241 00cc 1A60     		str	r2, [r3]
 242 00ce FFF7FEFF 		bl	HAL_GetTick
 243 00d2 0546     		mov	r5, r0
 244              	.L47:
 245 00d4 0223     		movs	r3, #2
 246              		.syntax unified
 247              	@ 988 "../Drivers/CMSIS/Include/cmsis_gcc.h" 1
 248 00d6 93FAA3F3 		rbit r3, r3
 249              	@ 0 "" 2
 250              		.thumb
 251              		.syntax unified
 252 00da 844B     		ldr	r3, .L132
 253 00dc 1968     		ldr	r1, [r3]
 254 00de 0223     		movs	r3, #2
 255              		.syntax unified
 256              	@ 988 "../Drivers/CMSIS/Include/cmsis_gcc.h" 1
 257 00e0 93FAA3F3 		rbit r3, r3
 258              	@ 0 "" 2
 259              		.thumb
 260              		.syntax unified
 261 00e4 B3FA83F3 		clz	r3, r3
 262 00e8 03F01F03 		and	r3, r3, #31
 263 00ec 0122     		movs	r2, #1
 264 00ee 02FA03F3 		lsl	r3, r2, r3
 265 00f2 0B42     		tst	r3, r1
 266 00f4 40F0C380 		bne	.L122
 267 00f8 FFF7FEFF 		bl	HAL_GetTick
 268 00fc 401B     		subs	r0, r0, r5
 269 00fe 0228     		cmp	r0, #2
 270 0100 E8D9     		bls	.L47
 271 0102 0320     		movs	r0, #3
 272 0104 8BE2     		b	.L21
 273              	.L119:
 274 0106 794A     		ldr	r2, .L132
 275 0108 1368     		ldr	r3, [r2]
 276 010a 43F48033 		orr	r3, r3, #65536
 277 010e 1360     		str	r3, [r2]
 278              	.L28:
 279 0110 764A     		ldr	r2, .L132
 280 0112 D36A     		ldr	r3, [r2, #44]
 281 0114 23F00F03 		bic	r3, r3, #15
 282 0118 A168     		ldr	r1, [r4, #8]
 283 011a 0B43     		orrs	r3, r3, r1
 284 011c D362     		str	r3, [r2, #44]
 285 011e 6368     		ldr	r3, [r4, #4]
 286 0120 002B     		cmp	r3, #0
 287 0122 36D0     		beq	.L31
 288 0124 FFF7FEFF 		bl	HAL_GetTick
ARM GAS  /tmp/ccD0QyxT.s 			page 6


 289 0128 0546     		mov	r5, r0
 290              	.L32:
 291 012a 4FF40033 		mov	r3, #131072
 292              		.syntax unified
 293              	@ 988 "../Drivers/CMSIS/Include/cmsis_gcc.h" 1
 294 012e 93FAA3F3 		rbit r3, r3
 295              	@ 0 "" 2
 296              		.thumb
 297              		.syntax unified
 298 0132 6E4B     		ldr	r3, .L132
 299 0134 1968     		ldr	r1, [r3]
 300 0136 4FF40033 		mov	r3, #131072
 301              		.syntax unified
 302              	@ 988 "../Drivers/CMSIS/Include/cmsis_gcc.h" 1
 303 013a 93FAA3F3 		rbit r3, r3
 304              	@ 0 "" 2
 305              		.thumb
 306              		.syntax unified
 307 013e B3FA83F3 		clz	r3, r3
 308 0142 03F01F03 		and	r3, r3, #31
 309 0146 0122     		movs	r2, #1
 310 0148 02FA03F3 		lsl	r3, r2, r3
 311 014c 0B42     		tst	r3, r1
 312 014e 9DD1     		bne	.L22
 313 0150 FFF7FEFF 		bl	HAL_GetTick
 314 0154 401B     		subs	r0, r0, r5
 315 0156 6428     		cmp	r0, #100
 316 0158 E7D9     		bls	.L32
 317 015a 0320     		movs	r0, #3
 318 015c 5FE2     		b	.L21
 319              	.L29:
 320 015e B3F5A02F 		cmp	r3, #327680
 321 0162 09D0     		beq	.L123
 322 0164 614B     		ldr	r3, .L132
 323 0166 1A68     		ldr	r2, [r3]
 324 0168 22F48032 		bic	r2, r2, #65536
 325 016c 1A60     		str	r2, [r3]
 326 016e 1A68     		ldr	r2, [r3]
 327 0170 22F48022 		bic	r2, r2, #262144
 328 0174 1A60     		str	r2, [r3]
 329 0176 CBE7     		b	.L28
 330              	.L123:
 331 0178 03F18043 		add	r3, r3, #1073741824
 332 017c A3F53C33 		sub	r3, r3, #192512
 333 0180 1A68     		ldr	r2, [r3]
 334 0182 42F48022 		orr	r2, r2, #262144
 335 0186 1A60     		str	r2, [r3]
 336 0188 1A68     		ldr	r2, [r3]
 337 018a 42F48032 		orr	r2, r2, #65536
 338 018e 1A60     		str	r2, [r3]
 339 0190 BEE7     		b	.L28
 340              	.L31:
 341 0192 FFF7FEFF 		bl	HAL_GetTick
 342 0196 0546     		mov	r5, r0
 343              	.L36:
 344 0198 4FF40033 		mov	r3, #131072
 345              		.syntax unified
ARM GAS  /tmp/ccD0QyxT.s 			page 7


 346              	@ 988 "../Drivers/CMSIS/Include/cmsis_gcc.h" 1
 347 019c 93FAA3F3 		rbit r3, r3
 348              	@ 0 "" 2
 349              		.thumb
 350              		.syntax unified
 351 01a0 524B     		ldr	r3, .L132
 352 01a2 1968     		ldr	r1, [r3]
 353 01a4 4FF40033 		mov	r3, #131072
 354              		.syntax unified
 355              	@ 988 "../Drivers/CMSIS/Include/cmsis_gcc.h" 1
 356 01a8 93FAA3F3 		rbit r3, r3
 357              	@ 0 "" 2
 358              		.thumb
 359              		.syntax unified
 360 01ac B3FA83F3 		clz	r3, r3
 361 01b0 03F01F03 		and	r3, r3, #31
 362 01b4 0122     		movs	r2, #1
 363 01b6 02FA03F3 		lsl	r3, r2, r3
 364 01ba 0B42     		tst	r3, r1
 365 01bc 3FF466AF 		beq	.L22
 366 01c0 FFF7FEFF 		bl	HAL_GetTick
 367 01c4 401B     		subs	r0, r0, r5
 368 01c6 6428     		cmp	r0, #100
 369 01c8 E6D9     		bls	.L36
 370 01ca 0320     		movs	r0, #3
 371 01cc 27E2     		b	.L21
 372              	.L121:
 373 01ce 474B     		ldr	r3, .L132
 374 01d0 5B68     		ldr	r3, [r3, #4]
 375 01d2 13F4803F 		tst	r3, #65536
 376 01d6 7FF46BAF 		bne	.L42
 377              	.L41:
 378 01da 0223     		movs	r3, #2
 379              		.syntax unified
 380              	@ 988 "../Drivers/CMSIS/Include/cmsis_gcc.h" 1
 381 01dc 93FAA3F3 		rbit r3, r3
 382              	@ 0 "" 2
 383              		.thumb
 384              		.syntax unified
 385 01e0 424B     		ldr	r3, .L132
 386 01e2 1968     		ldr	r1, [r3]
 387 01e4 0223     		movs	r3, #2
 388              		.syntax unified
 389              	@ 988 "../Drivers/CMSIS/Include/cmsis_gcc.h" 1
 390 01e6 93FAA3F3 		rbit r3, r3
 391              	@ 0 "" 2
 392              		.thumb
 393              		.syntax unified
 394 01ea B3FA83F3 		clz	r3, r3
 395 01ee 03F01F03 		and	r3, r3, #31
 396 01f2 0122     		movs	r2, #1
 397 01f4 02FA03F3 		lsl	r3, r2, r3
 398 01f8 0B42     		tst	r3, r1
 399 01fa 03D0     		beq	.L45
 400 01fc 2369     		ldr	r3, [r4, #16]
 401 01fe 9342     		cmp	r3, r2
 402 0200 40F00682 		bne	.L98
ARM GAS  /tmp/ccD0QyxT.s 			page 8


 403              	.L45:
 404 0204 3948     		ldr	r0, .L132
 405 0206 0368     		ldr	r3, [r0]
 406 0208 23F0F803 		bic	r3, r3, #248
 407 020c 6169     		ldr	r1, [r4, #20]
 408 020e F822     		movs	r2, #248
 409              		.syntax unified
 410              	@ 988 "../Drivers/CMSIS/Include/cmsis_gcc.h" 1
 411 0210 92FAA2F2 		rbit r2, r2
 412              	@ 0 "" 2
 413              		.thumb
 414              		.syntax unified
 415 0214 B2FA82F2 		clz	r2, r2
 416 0218 01FA02F2 		lsl	r2, r1, r2
 417 021c 1343     		orrs	r3, r3, r2
 418 021e 0360     		str	r3, [r0]
 419              	.L40:
 420 0220 2368     		ldr	r3, [r4]
 421 0222 13F0080F 		tst	r3, #8
 422 0226 00F08D80 		beq	.L55
 423 022a A369     		ldr	r3, [r4, #24]
 424 022c 002B     		cmp	r3, #0
 425 022e 61D0     		beq	.L56
 426 0230 0121     		movs	r1, #1
 427              		.syntax unified
 428              	@ 988 "../Drivers/CMSIS/Include/cmsis_gcc.h" 1
 429 0232 91FAA1F2 		rbit r2, r1
 430              	@ 0 "" 2
 431              		.thumb
 432              		.syntax unified
 433 0236 B2FA82F2 		clz	r2, r2
 434 023a 2D4B     		ldr	r3, .L132+4
 435 023c 1344     		add	r3, r3, r2
 436 023e 9B00     		lsls	r3, r3, #2
 437 0240 1960     		str	r1, [r3]
 438 0242 FFF7FEFF 		bl	HAL_GetTick
 439 0246 0546     		mov	r5, r0
 440              	.L57:
 441 0248 0223     		movs	r3, #2
 442              		.syntax unified
 443              	@ 988 "../Drivers/CMSIS/Include/cmsis_gcc.h" 1
 444 024a 93FAA3F2 		rbit r2, r3
 445              	@ 0 "" 2
 446              	@ 988 "../Drivers/CMSIS/Include/cmsis_gcc.h" 1
 447 024e 93FAA3F2 		rbit r2, r3
 448              	@ 0 "" 2
 449              	@ 988 "../Drivers/CMSIS/Include/cmsis_gcc.h" 1
 450 0252 93FAA3F2 		rbit r2, r3
 451              	@ 0 "" 2
 452              		.thumb
 453              		.syntax unified
 454 0256 254A     		ldr	r2, .L132
 455 0258 516A     		ldr	r1, [r2, #36]
 456              		.syntax unified
 457              	@ 988 "../Drivers/CMSIS/Include/cmsis_gcc.h" 1
 458 025a 93FAA3F3 		rbit r3, r3
 459              	@ 0 "" 2
ARM GAS  /tmp/ccD0QyxT.s 			page 9


 460              		.thumb
 461              		.syntax unified
 462 025e B3FA83F3 		clz	r3, r3
 463 0262 03F01F03 		and	r3, r3, #31
 464 0266 0122     		movs	r2, #1
 465 0268 02FA03F3 		lsl	r3, r2, r3
 466 026c 0B42     		tst	r3, r1
 467 026e 69D1     		bne	.L55
 468 0270 FFF7FEFF 		bl	HAL_GetTick
 469 0274 401B     		subs	r0, r0, r5
 470 0276 0228     		cmp	r0, #2
 471 0278 E6D9     		bls	.L57
 472 027a 0320     		movs	r0, #3
 473 027c CFE1     		b	.L21
 474              	.L122:
 475 027e 1B48     		ldr	r0, .L132
 476 0280 0368     		ldr	r3, [r0]
 477 0282 23F0F803 		bic	r3, r3, #248
 478 0286 6169     		ldr	r1, [r4, #20]
 479 0288 F822     		movs	r2, #248
 480              		.syntax unified
 481              	@ 988 "../Drivers/CMSIS/Include/cmsis_gcc.h" 1
 482 028a 92FAA2F2 		rbit r2, r2
 483              	@ 0 "" 2
 484              		.thumb
 485              		.syntax unified
 486 028e B2FA82F2 		clz	r2, r2
 487 0292 01FA02F2 		lsl	r2, r1, r2
 488 0296 1343     		orrs	r3, r3, r2
 489 0298 0360     		str	r3, [r0]
 490 029a C1E7     		b	.L40
 491              	.L46:
 492 029c 0123     		movs	r3, #1
 493              		.syntax unified
 494              	@ 988 "../Drivers/CMSIS/Include/cmsis_gcc.h" 1
 495 029e 93FAA3F3 		rbit r3, r3
 496              	@ 0 "" 2
 497              		.thumb
 498              		.syntax unified
 499 02a2 B3FA83F3 		clz	r3, r3
 500 02a6 03F18453 		add	r3, r3, #276824064
 501 02aa 03F58413 		add	r3, r3, #1081344
 502 02ae 9B00     		lsls	r3, r3, #2
 503 02b0 0022     		movs	r2, #0
 504 02b2 1A60     		str	r2, [r3]
 505 02b4 FFF7FEFF 		bl	HAL_GetTick
 506 02b8 0546     		mov	r5, r0
 507              	.L51:
 508 02ba 0223     		movs	r3, #2
 509              		.syntax unified
 510              	@ 988 "../Drivers/CMSIS/Include/cmsis_gcc.h" 1
 511 02bc 93FAA3F3 		rbit r3, r3
 512              	@ 0 "" 2
 513              		.thumb
 514              		.syntax unified
 515 02c0 0A4B     		ldr	r3, .L132
 516 02c2 1968     		ldr	r1, [r3]
ARM GAS  /tmp/ccD0QyxT.s 			page 10


 517 02c4 0223     		movs	r3, #2
 518              		.syntax unified
 519              	@ 988 "../Drivers/CMSIS/Include/cmsis_gcc.h" 1
 520 02c6 93FAA3F3 		rbit r3, r3
 521              	@ 0 "" 2
 522              		.thumb
 523              		.syntax unified
 524 02ca B3FA83F3 		clz	r3, r3
 525 02ce 03F01F03 		and	r3, r3, #31
 526 02d2 0122     		movs	r2, #1
 527 02d4 02FA03F3 		lsl	r3, r2, r3
 528 02d8 0B42     		tst	r3, r1
 529 02da A1D0     		beq	.L40
 530 02dc FFF7FEFF 		bl	HAL_GetTick
 531 02e0 401B     		subs	r0, r0, r5
 532 02e2 0228     		cmp	r0, #2
 533 02e4 E9D9     		bls	.L51
 534 02e6 0320     		movs	r0, #3
 535 02e8 99E1     		b	.L21
 536              	.L133:
 537 02ea 00BF     		.align	2
 538              	.L132:
 539 02ec 00100240 		.word	1073876992
 540 02f0 20819010 		.word	277905696
 541              	.L56:
 542 02f4 0122     		movs	r2, #1
 543              		.syntax unified
 544              	@ 988 "../Drivers/CMSIS/Include/cmsis_gcc.h" 1
 545 02f6 92FAA2F2 		rbit r2, r2
 546              	@ 0 "" 2
 547              		.thumb
 548              		.syntax unified
 549 02fa B2FA82F2 		clz	r2, r2
 550 02fe B74B     		ldr	r3, .L134
 551 0300 1344     		add	r3, r3, r2
 552 0302 9B00     		lsls	r3, r3, #2
 553 0304 0022     		movs	r2, #0
 554 0306 1A60     		str	r2, [r3]
 555 0308 FFF7FEFF 		bl	HAL_GetTick
 556 030c 0546     		mov	r5, r0
 557              	.L59:
 558 030e 0223     		movs	r3, #2
 559              		.syntax unified
 560              	@ 988 "../Drivers/CMSIS/Include/cmsis_gcc.h" 1
 561 0310 93FAA3F2 		rbit r2, r3
 562              	@ 0 "" 2
 563              	@ 988 "../Drivers/CMSIS/Include/cmsis_gcc.h" 1
 564 0314 93FAA3F2 		rbit r2, r3
 565              	@ 0 "" 2
 566              	@ 988 "../Drivers/CMSIS/Include/cmsis_gcc.h" 1
 567 0318 93FAA3F2 		rbit r2, r3
 568              	@ 0 "" 2
 569              		.thumb
 570              		.syntax unified
 571 031c B04A     		ldr	r2, .L134+4
 572 031e 516A     		ldr	r1, [r2, #36]
 573              		.syntax unified
ARM GAS  /tmp/ccD0QyxT.s 			page 11


 574              	@ 988 "../Drivers/CMSIS/Include/cmsis_gcc.h" 1
 575 0320 93FAA3F3 		rbit r3, r3
 576              	@ 0 "" 2
 577              		.thumb
 578              		.syntax unified
 579 0324 B3FA83F3 		clz	r3, r3
 580 0328 03F01F03 		and	r3, r3, #31
 581 032c 0122     		movs	r2, #1
 582 032e 02FA03F3 		lsl	r3, r2, r3
 583 0332 0B42     		tst	r3, r1
 584 0334 06D0     		beq	.L55
 585 0336 FFF7FEFF 		bl	HAL_GetTick
 586 033a 401B     		subs	r0, r0, r5
 587 033c 0228     		cmp	r0, #2
 588 033e E6D9     		bls	.L59
 589 0340 0320     		movs	r0, #3
 590 0342 6CE1     		b	.L21
 591              	.L55:
 592 0344 2368     		ldr	r3, [r4]
 593 0346 13F0040F 		tst	r3, #4
 594 034a 00F0A980 		beq	.L61
 595 034e A44B     		ldr	r3, .L134+4
 596 0350 DB69     		ldr	r3, [r3, #28]
 597 0352 13F0805F 		tst	r3, #268435456
 598 0356 0BD1     		bne	.L103
 599 0358 A14B     		ldr	r3, .L134+4
 600 035a DA69     		ldr	r2, [r3, #28]
 601 035c 42F08052 		orr	r2, r2, #268435456
 602 0360 DA61     		str	r2, [r3, #28]
 603 0362 DB69     		ldr	r3, [r3, #28]
 604 0364 03F08053 		and	r3, r3, #268435456
 605 0368 0193     		str	r3, [sp, #4]
 606 036a 019B     		ldr	r3, [sp, #4]
 607 036c 0125     		movs	r5, #1
 608 036e 00E0     		b	.L62
 609              	.L103:
 610 0370 0025     		movs	r5, #0
 611              	.L62:
 612 0372 9C4B     		ldr	r3, .L134+8
 613 0374 1B68     		ldr	r3, [r3]
 614 0376 13F4807F 		tst	r3, #256
 615 037a 10D0     		beq	.L124
 616              	.L63:
 617 037c E368     		ldr	r3, [r4, #12]
 618 037e 012B     		cmp	r3, #1
 619 0380 21D0     		beq	.L125
 620 0382 63BB     		cbnz	r3, .L68
 621 0384 03F18043 		add	r3, r3, #1073741824
 622 0388 03F50433 		add	r3, r3, #135168
 623 038c 1A6A     		ldr	r2, [r3, #32]
 624 038e 22F00102 		bic	r2, r2, #1
 625 0392 1A62     		str	r2, [r3, #32]
 626 0394 1A6A     		ldr	r2, [r3, #32]
 627 0396 22F00402 		bic	r2, r2, #4
 628 039a 1A62     		str	r2, [r3, #32]
 629 039c 18E0     		b	.L67
 630              	.L124:
ARM GAS  /tmp/ccD0QyxT.s 			page 12


 631 039e 914A     		ldr	r2, .L134+8
 632 03a0 1368     		ldr	r3, [r2]
 633 03a2 43F48073 		orr	r3, r3, #256
 634 03a6 1360     		str	r3, [r2]
 635 03a8 FFF7FEFF 		bl	HAL_GetTick
 636 03ac 0646     		mov	r6, r0
 637              	.L64:
 638 03ae 8D4B     		ldr	r3, .L134+8
 639 03b0 1B68     		ldr	r3, [r3]
 640 03b2 13F4807F 		tst	r3, #256
 641 03b6 E1D1     		bne	.L63
 642 03b8 FFF7FEFF 		bl	HAL_GetTick
 643 03bc 801B     		subs	r0, r0, r6
 644 03be 6428     		cmp	r0, #100
 645 03c0 F5D9     		bls	.L64
 646 03c2 0320     		movs	r0, #3
 647 03c4 2BE1     		b	.L21
 648              	.L125:
 649 03c6 864A     		ldr	r2, .L134+4
 650 03c8 136A     		ldr	r3, [r2, #32]
 651 03ca 43F00103 		orr	r3, r3, #1
 652 03ce 1362     		str	r3, [r2, #32]
 653              	.L67:
 654 03d0 E368     		ldr	r3, [r4, #12]
 655 03d2 002B     		cmp	r3, #0
 656 03d4 3CD0     		beq	.L70
 657 03d6 FFF7FEFF 		bl	HAL_GetTick
 658 03da 0646     		mov	r6, r0
 659 03dc 2EE0     		b	.L71
 660              	.L68:
 661 03de 052B     		cmp	r3, #5
 662 03e0 09D0     		beq	.L126
 663 03e2 7F4B     		ldr	r3, .L134+4
 664 03e4 1A6A     		ldr	r2, [r3, #32]
 665 03e6 22F00102 		bic	r2, r2, #1
 666 03ea 1A62     		str	r2, [r3, #32]
 667 03ec 1A6A     		ldr	r2, [r3, #32]
 668 03ee 22F00402 		bic	r2, r2, #4
 669 03f2 1A62     		str	r2, [r3, #32]
 670 03f4 ECE7     		b	.L67
 671              	.L126:
 672 03f6 7A4B     		ldr	r3, .L134+4
 673 03f8 1A6A     		ldr	r2, [r3, #32]
 674 03fa 42F00402 		orr	r2, r2, #4
 675 03fe 1A62     		str	r2, [r3, #32]
 676 0400 1A6A     		ldr	r2, [r3, #32]
 677 0402 42F00102 		orr	r2, r2, #1
 678 0406 1A62     		str	r2, [r3, #32]
 679 0408 E2E7     		b	.L67
 680              	.L72:
 681 040a 0223     		movs	r3, #2
 682              		.syntax unified
 683              	@ 988 "../Drivers/CMSIS/Include/cmsis_gcc.h" 1
 684 040c 93FAA3F3 		rbit r3, r3
 685              	@ 0 "" 2
 686              		.thumb
 687              		.syntax unified
ARM GAS  /tmp/ccD0QyxT.s 			page 13


 688 0410 734B     		ldr	r3, .L134+4
 689 0412 596A     		ldr	r1, [r3, #36]
 690              	.L73:
 691 0414 0223     		movs	r3, #2
 692              		.syntax unified
 693              	@ 988 "../Drivers/CMSIS/Include/cmsis_gcc.h" 1
 694 0416 93FAA3F3 		rbit r3, r3
 695              	@ 0 "" 2
 696              		.thumb
 697              		.syntax unified
 698 041a B3FA83F3 		clz	r3, r3
 699 041e 03F01F03 		and	r3, r3, #31
 700 0422 0122     		movs	r2, #1
 701 0424 02FA03F3 		lsl	r3, r2, r3
 702 0428 1942     		tst	r1, r3
 703 042a 38D1     		bne	.L75
 704 042c FFF7FEFF 		bl	HAL_GetTick
 705 0430 801B     		subs	r0, r0, r6
 706 0432 41F28833 		movw	r3, #5000
 707 0436 9842     		cmp	r0, r3
 708 0438 00F2EC80 		bhi	.L105
 709              	.L71:
 710 043c 0223     		movs	r3, #2
 711              		.syntax unified
 712              	@ 988 "../Drivers/CMSIS/Include/cmsis_gcc.h" 1
 713 043e 93FAA3F2 		rbit r2, r3
 714              	@ 0 "" 2
 715              	@ 988 "../Drivers/CMSIS/Include/cmsis_gcc.h" 1
 716 0442 93FAA3F3 		rbit r3, r3
 717              	@ 0 "" 2
 718              		.thumb
 719              		.syntax unified
 720 0446 002B     		cmp	r3, #0
 721 0448 DFD0     		beq	.L72
 722 044a 654B     		ldr	r3, .L134+4
 723 044c 196A     		ldr	r1, [r3, #32]
 724 044e E1E7     		b	.L73
 725              	.L70:
 726 0450 FFF7FEFF 		bl	HAL_GetTick
 727 0454 0646     		mov	r6, r0
 728 0456 18E0     		b	.L76
 729              	.L77:
 730 0458 0223     		movs	r3, #2
 731              		.syntax unified
 732              	@ 988 "../Drivers/CMSIS/Include/cmsis_gcc.h" 1
 733 045a 93FAA3F3 		rbit r3, r3
 734              	@ 0 "" 2
 735              		.thumb
 736              		.syntax unified
 737 045e 604B     		ldr	r3, .L134+4
 738 0460 596A     		ldr	r1, [r3, #36]
 739              	.L78:
 740 0462 0223     		movs	r3, #2
 741              		.syntax unified
 742              	@ 988 "../Drivers/CMSIS/Include/cmsis_gcc.h" 1
 743 0464 93FAA3F3 		rbit r3, r3
 744              	@ 0 "" 2
ARM GAS  /tmp/ccD0QyxT.s 			page 14


 745              		.thumb
 746              		.syntax unified
 747 0468 B3FA83F3 		clz	r3, r3
 748 046c 03F01F03 		and	r3, r3, #31
 749 0470 0122     		movs	r2, #1
 750 0472 02FA03F3 		lsl	r3, r2, r3
 751 0476 1942     		tst	r1, r3
 752 0478 11D0     		beq	.L75
 753 047a FFF7FEFF 		bl	HAL_GetTick
 754 047e 801B     		subs	r0, r0, r6
 755 0480 41F28833 		movw	r3, #5000
 756 0484 9842     		cmp	r0, r3
 757 0486 00F2C780 		bhi	.L106
 758              	.L76:
 759 048a 0223     		movs	r3, #2
 760              		.syntax unified
 761              	@ 988 "../Drivers/CMSIS/Include/cmsis_gcc.h" 1
 762 048c 93FAA3F2 		rbit r2, r3
 763              	@ 0 "" 2
 764              	@ 988 "../Drivers/CMSIS/Include/cmsis_gcc.h" 1
 765 0490 93FAA3F3 		rbit r3, r3
 766              	@ 0 "" 2
 767              		.thumb
 768              		.syntax unified
 769 0494 002B     		cmp	r3, #0
 770 0496 DFD0     		beq	.L77
 771 0498 514B     		ldr	r3, .L134+4
 772 049a 196A     		ldr	r1, [r3, #32]
 773 049c E1E7     		b	.L78
 774              	.L75:
 775 049e B5BB     		cbnz	r5, .L127
 776              	.L61:
 777 04a0 E369     		ldr	r3, [r4, #28]
 778 04a2 002B     		cmp	r3, #0
 779 04a4 00F0BA80 		beq	.L107
 780 04a8 4D4A     		ldr	r2, .L134+4
 781 04aa 5268     		ldr	r2, [r2, #4]
 782 04ac 02F00C02 		and	r2, r2, #12
 783 04b0 082A     		cmp	r2, #8
 784 04b2 00F09980 		beq	.L80
 785 04b6 022B     		cmp	r3, #2
 786 04b8 2FD0     		beq	.L128
 787 04ba 4FF08073 		mov	r3, #16777216
 788              		.syntax unified
 789              	@ 988 "../Drivers/CMSIS/Include/cmsis_gcc.h" 1
 790 04be 93FAA3F3 		rbit r3, r3
 791              	@ 0 "" 2
 792              		.thumb
 793              		.syntax unified
 794 04c2 B3FA83F3 		clz	r3, r3
 795 04c6 03F18453 		add	r3, r3, #276824064
 796 04ca 03F58413 		add	r3, r3, #1081344
 797 04ce 9B00     		lsls	r3, r3, #2
 798 04d0 0022     		movs	r2, #0
 799 04d2 1A60     		str	r2, [r3]
 800 04d4 FFF7FEFF 		bl	HAL_GetTick
 801 04d8 0446     		mov	r4, r0
ARM GAS  /tmp/ccD0QyxT.s 			page 15


 802              	.L90:
 803 04da 4FF00073 		mov	r3, #33554432
 804              		.syntax unified
 805              	@ 988 "../Drivers/CMSIS/Include/cmsis_gcc.h" 1
 806 04de 93FAA3F3 		rbit r3, r3
 807              	@ 0 "" 2
 808              		.thumb
 809              		.syntax unified
 810 04e2 3F4B     		ldr	r3, .L134+4
 811 04e4 1968     		ldr	r1, [r3]
 812 04e6 4FF00073 		mov	r3, #33554432
 813              		.syntax unified
 814              	@ 988 "../Drivers/CMSIS/Include/cmsis_gcc.h" 1
 815 04ea 93FAA3F3 		rbit r3, r3
 816              	@ 0 "" 2
 817              		.thumb
 818              		.syntax unified
 819 04ee B3FA83F3 		clz	r3, r3
 820 04f2 03F01F03 		and	r3, r3, #31
 821 04f6 0122     		movs	r2, #1
 822 04f8 02FA03F3 		lsl	r3, r2, r3
 823 04fc 1942     		tst	r1, r3
 824 04fe 6BD0     		beq	.L129
 825 0500 FFF7FEFF 		bl	HAL_GetTick
 826 0504 001B     		subs	r0, r0, r4
 827 0506 0228     		cmp	r0, #2
 828 0508 E7D9     		bls	.L90
 829 050a 0320     		movs	r0, #3
 830 050c 87E0     		b	.L21
 831              	.L127:
 832 050e 344A     		ldr	r2, .L134+4
 833 0510 D369     		ldr	r3, [r2, #28]
 834 0512 23F08053 		bic	r3, r3, #268435456
 835 0516 D361     		str	r3, [r2, #28]
 836 0518 C2E7     		b	.L61
 837              	.L128:
 838 051a 4FF08073 		mov	r3, #16777216
 839              		.syntax unified
 840              	@ 988 "../Drivers/CMSIS/Include/cmsis_gcc.h" 1
 841 051e 93FAA3F3 		rbit r3, r3
 842              	@ 0 "" 2
 843              		.thumb
 844              		.syntax unified
 845 0522 B3FA83F3 		clz	r3, r3
 846 0526 03F18453 		add	r3, r3, #276824064
 847 052a 03F58413 		add	r3, r3, #1081344
 848 052e 9B00     		lsls	r3, r3, #2
 849 0530 0022     		movs	r2, #0
 850 0532 1A60     		str	r2, [r3]
 851 0534 FFF7FEFF 		bl	HAL_GetTick
 852 0538 0546     		mov	r5, r0
 853              	.L82:
 854 053a 4FF00073 		mov	r3, #33554432
 855              		.syntax unified
 856              	@ 988 "../Drivers/CMSIS/Include/cmsis_gcc.h" 1
 857 053e 93FAA3F3 		rbit r3, r3
 858              	@ 0 "" 2
ARM GAS  /tmp/ccD0QyxT.s 			page 16


 859              		.thumb
 860              		.syntax unified
 861 0542 274B     		ldr	r3, .L134+4
 862 0544 1968     		ldr	r1, [r3]
 863 0546 4FF00073 		mov	r3, #33554432
 864              		.syntax unified
 865              	@ 988 "../Drivers/CMSIS/Include/cmsis_gcc.h" 1
 866 054a 93FAA3F3 		rbit r3, r3
 867              	@ 0 "" 2
 868              		.thumb
 869              		.syntax unified
 870 054e B3FA83F3 		clz	r3, r3
 871 0552 03F01F03 		and	r3, r3, #31
 872 0556 0122     		movs	r2, #1
 873 0558 02FA03F3 		lsl	r3, r2, r3
 874 055c 1942     		tst	r1, r3
 875 055e 06D0     		beq	.L130
 876 0560 FFF7FEFF 		bl	HAL_GetTick
 877 0564 401B     		subs	r0, r0, r5
 878 0566 0228     		cmp	r0, #2
 879 0568 E7D9     		bls	.L82
 880 056a 0320     		movs	r0, #3
 881 056c 57E0     		b	.L21
 882              	.L130:
 883 056e 1C49     		ldr	r1, .L134+4
 884 0570 4B68     		ldr	r3, [r1, #4]
 885 0572 23F47413 		bic	r3, r3, #3997696
 886 0576 626A     		ldr	r2, [r4, #36]
 887 0578 206A     		ldr	r0, [r4, #32]
 888 057a 0243     		orrs	r2, r2, r0
 889 057c 1343     		orrs	r3, r3, r2
 890 057e 4B60     		str	r3, [r1, #4]
 891 0580 4FF08073 		mov	r3, #16777216
 892              		.syntax unified
 893              	@ 988 "../Drivers/CMSIS/Include/cmsis_gcc.h" 1
 894 0584 93FAA3F3 		rbit r3, r3
 895              	@ 0 "" 2
 896              		.thumb
 897              		.syntax unified
 898 0588 B3FA83F3 		clz	r3, r3
 899 058c 03F18453 		add	r3, r3, #276824064
 900 0590 03F58413 		add	r3, r3, #1081344
 901 0594 9B00     		lsls	r3, r3, #2
 902 0596 0122     		movs	r2, #1
 903 0598 1A60     		str	r2, [r3]
 904 059a FFF7FEFF 		bl	HAL_GetTick
 905 059e 0446     		mov	r4, r0
 906              	.L86:
 907 05a0 4FF00073 		mov	r3, #33554432
 908              		.syntax unified
 909              	@ 988 "../Drivers/CMSIS/Include/cmsis_gcc.h" 1
 910 05a4 93FAA3F3 		rbit r3, r3
 911              	@ 0 "" 2
 912              		.thumb
 913              		.syntax unified
 914 05a8 0D4B     		ldr	r3, .L134+4
 915 05aa 1968     		ldr	r1, [r3]
ARM GAS  /tmp/ccD0QyxT.s 			page 17


 916 05ac 4FF00073 		mov	r3, #33554432
 917              		.syntax unified
 918              	@ 988 "../Drivers/CMSIS/Include/cmsis_gcc.h" 1
 919 05b0 93FAA3F3 		rbit r3, r3
 920              	@ 0 "" 2
 921              		.thumb
 922              		.syntax unified
 923 05b4 B3FA83F3 		clz	r3, r3
 924 05b8 03F01F03 		and	r3, r3, #31
 925 05bc 0122     		movs	r2, #1
 926 05be 02FA03F3 		lsl	r3, r2, r3
 927 05c2 1942     		tst	r1, r3
 928 05c4 06D1     		bne	.L131
 929 05c6 FFF7FEFF 		bl	HAL_GetTick
 930 05ca 001B     		subs	r0, r0, r4
 931 05cc 0228     		cmp	r0, #2
 932 05ce E7D9     		bls	.L86
 933 05d0 0320     		movs	r0, #3
 934 05d2 24E0     		b	.L21
 935              	.L131:
 936 05d4 0020     		movs	r0, #0
 937 05d6 22E0     		b	.L21
 938              	.L129:
 939 05d8 0020     		movs	r0, #0
 940 05da 20E0     		b	.L21
 941              	.L135:
 942              		.align	2
 943              	.L134:
 944 05dc 20819010 		.word	277905696
 945 05e0 00100240 		.word	1073876992
 946 05e4 00700040 		.word	1073770496
 947              	.L80:
 948 05e8 012B     		cmp	r3, #1
 949 05ea 1AD0     		beq	.L111
 950 05ec 104B     		ldr	r3, .L136
 951 05ee 5B68     		ldr	r3, [r3, #4]
 952 05f0 03F48031 		and	r1, r3, #65536
 953 05f4 226A     		ldr	r2, [r4, #32]
 954 05f6 9142     		cmp	r1, r2
 955 05f8 15D1     		bne	.L112
 956 05fa 03F47013 		and	r3, r3, #3932160
 957 05fe 626A     		ldr	r2, [r4, #36]
 958 0600 9342     		cmp	r3, r2
 959 0602 12D1     		bne	.L113
 960 0604 0020     		movs	r0, #0
 961 0606 0AE0     		b	.L21
 962              	.L94:
 963 0608 0120     		movs	r0, #1
 964 060a 7047     		bx	lr
 965              	.L120:
 966 060c 0120     		movs	r0, #1
 967 060e 06E0     		b	.L21
 968              	.L98:
 969 0610 0120     		movs	r0, #1
 970 0612 04E0     		b	.L21
 971              	.L105:
 972 0614 0320     		movs	r0, #3
ARM GAS  /tmp/ccD0QyxT.s 			page 18


 973 0616 02E0     		b	.L21
 974              	.L106:
 975 0618 0320     		movs	r0, #3
 976 061a 00E0     		b	.L21
 977              	.L107:
 978 061c 0020     		movs	r0, #0
 979              	.L21:
 980 061e 02B0     		add	sp, sp, #8
 981              		@ sp needed
 982 0620 70BD     		pop	{r4, r5, r6, pc}
 983              	.L111:
 984 0622 0120     		movs	r0, #1
 985 0624 FBE7     		b	.L21
 986              	.L112:
 987 0626 0120     		movs	r0, #1
 988 0628 F9E7     		b	.L21
 989              	.L113:
 990 062a 0120     		movs	r0, #1
 991 062c F7E7     		b	.L21
 992              	.L137:
 993 062e 00BF     		.align	2
 994              	.L136:
 995 0630 00100240 		.word	1073876992
 997              		.section	.text.HAL_RCC_MCOConfig,"ax",%progbits
 998              		.align	1
 999              		.global	HAL_RCC_MCOConfig
 1000              		.syntax unified
 1001              		.thumb
 1002              		.thumb_func
 1003              		.fpu fpv4-sp-d16
 1005              	HAL_RCC_MCOConfig:
 1006              		@ args = 0, pretend = 0, frame = 24
 1007              		@ frame_needed = 0, uses_anonymous_args = 0
 1008 0000 30B5     		push	{r4, r5, lr}
 1009 0002 87B0     		sub	sp, sp, #28
 1010 0004 0D46     		mov	r5, r1
 1011 0006 0223     		movs	r3, #2
 1012 0008 0293     		str	r3, [sp, #8]
 1013 000a 0323     		movs	r3, #3
 1014 000c 0493     		str	r3, [sp, #16]
 1015 000e 0023     		movs	r3, #0
 1016 0010 0393     		str	r3, [sp, #12]
 1017 0012 4FF48072 		mov	r2, #256
 1018 0016 0192     		str	r2, [sp, #4]
 1019 0018 0593     		str	r3, [sp, #20]
 1020 001a 0B4C     		ldr	r4, .L140
 1021 001c 6369     		ldr	r3, [r4, #20]
 1022 001e 43F40033 		orr	r3, r3, #131072
 1023 0022 6361     		str	r3, [r4, #20]
 1024 0024 6369     		ldr	r3, [r4, #20]
 1025 0026 03F40033 		and	r3, r3, #131072
 1026 002a 0093     		str	r3, [sp]
 1027 002c 009B     		ldr	r3, [sp]
 1028 002e 01A9     		add	r1, sp, #4
 1029 0030 4FF09040 		mov	r0, #1207959552
 1030 0034 FFF7FEFF 		bl	HAL_GPIO_Init
 1031 0038 6368     		ldr	r3, [r4, #4]
ARM GAS  /tmp/ccD0QyxT.s 			page 19


 1032 003a 23F0E063 		bic	r3, r3, #117440512
 1033 003e 2B43     		orrs	r3, r3, r5
 1034 0040 6360     		str	r3, [r4, #4]
 1035 0042 07B0     		add	sp, sp, #28
 1036              		@ sp needed
 1037 0044 30BD     		pop	{r4, r5, pc}
 1038              	.L141:
 1039 0046 00BF     		.align	2
 1040              	.L140:
 1041 0048 00100240 		.word	1073876992
 1043              		.section	.text.HAL_RCC_EnableCSS,"ax",%progbits
 1044              		.align	1
 1045              		.global	HAL_RCC_EnableCSS
 1046              		.syntax unified
 1047              		.thumb
 1048              		.thumb_func
 1049              		.fpu fpv4-sp-d16
 1051              	HAL_RCC_EnableCSS:
 1052              		@ args = 0, pretend = 0, frame = 0
 1053              		@ frame_needed = 0, uses_anonymous_args = 0
 1054              		@ link register save eliminated.
 1055 0000 4FF40023 		mov	r3, #524288
 1056              		.syntax unified
 1057              	@ 988 "../Drivers/CMSIS/Include/cmsis_gcc.h" 1
 1058 0004 93FAA3F3 		rbit r3, r3
 1059              	@ 0 "" 2
 1060              		.thumb
 1061              		.syntax unified
 1062 0008 B3FA83F3 		clz	r3, r3
 1063 000c 03F18453 		add	r3, r3, #276824064
 1064 0010 03F58413 		add	r3, r3, #1081344
 1065 0014 9B00     		lsls	r3, r3, #2
 1066 0016 0122     		movs	r2, #1
 1067 0018 1A60     		str	r2, [r3]
 1068 001a 7047     		bx	lr
 1070              		.section	.text.HAL_RCC_DisableCSS,"ax",%progbits
 1071              		.align	1
 1072              		.global	HAL_RCC_DisableCSS
 1073              		.syntax unified
 1074              		.thumb
 1075              		.thumb_func
 1076              		.fpu fpv4-sp-d16
 1078              	HAL_RCC_DisableCSS:
 1079              		@ args = 0, pretend = 0, frame = 0
 1080              		@ frame_needed = 0, uses_anonymous_args = 0
 1081              		@ link register save eliminated.
 1082 0000 4FF40023 		mov	r3, #524288
 1083              		.syntax unified
 1084              	@ 988 "../Drivers/CMSIS/Include/cmsis_gcc.h" 1
 1085 0004 93FAA3F3 		rbit r3, r3
 1086              	@ 0 "" 2
 1087              		.thumb
 1088              		.syntax unified
 1089 0008 B3FA83F3 		clz	r3, r3
 1090 000c 03F18453 		add	r3, r3, #276824064
 1091 0010 03F58413 		add	r3, r3, #1081344
 1092 0014 9B00     		lsls	r3, r3, #2
ARM GAS  /tmp/ccD0QyxT.s 			page 20


 1093 0016 0022     		movs	r2, #0
 1094 0018 1A60     		str	r2, [r3]
 1095 001a 7047     		bx	lr
 1097              		.section	.text.HAL_RCC_GetSysClockFreq,"ax",%progbits
 1098              		.align	1
 1099              		.global	HAL_RCC_GetSysClockFreq
 1100              		.syntax unified
 1101              		.thumb
 1102              		.thumb_func
 1103              		.fpu fpv4-sp-d16
 1105              	HAL_RCC_GetSysClockFreq:
 1106              		@ args = 0, pretend = 0, frame = 0
 1107              		@ frame_needed = 0, uses_anonymous_args = 0
 1108              		@ link register save eliminated.
 1109 0000 164B     		ldr	r3, .L149
 1110 0002 5B68     		ldr	r3, [r3, #4]
 1111 0004 03F00C02 		and	r2, r3, #12
 1112 0008 082A     		cmp	r2, #8
 1113 000a 01D0     		beq	.L148
 1114 000c 1448     		ldr	r0, .L149+4
 1115 000e 7047     		bx	lr
 1116              	.L148:
 1117 0010 03F47011 		and	r1, r3, #3932160
 1118 0014 4FF47012 		mov	r2, #3932160
 1119              		.syntax unified
 1120              	@ 988 "../Drivers/CMSIS/Include/cmsis_gcc.h" 1
 1121 0018 92FAA2F2 		rbit r2, r2
 1122              	@ 0 "" 2
 1123              		.thumb
 1124              		.syntax unified
 1125 001c B2FA82F2 		clz	r2, r2
 1126 0020 21FA02F2 		lsr	r2, r1, r2
 1127 0024 0F49     		ldr	r1, .L149+8
 1128 0026 885C     		ldrb	r0, [r1, r2]	@ zero_extendqisi2
 1129 0028 0C4A     		ldr	r2, .L149
 1130 002a D26A     		ldr	r2, [r2, #44]
 1131 002c 02F00F02 		and	r2, r2, #15
 1132 0030 0F21     		movs	r1, #15
 1133              		.syntax unified
 1134              	@ 988 "../Drivers/CMSIS/Include/cmsis_gcc.h" 1
 1135 0032 91FAA1F1 		rbit r1, r1
 1136              	@ 0 "" 2
 1137              		.thumb
 1138              		.syntax unified
 1139 0036 B1FA81F1 		clz	r1, r1
 1140 003a CA40     		lsrs	r2, r2, r1
 1141 003c 0A49     		ldr	r1, .L149+12
 1142 003e 8A5C     		ldrb	r2, [r1, r2]	@ zero_extendqisi2
 1143 0040 13F4803F 		tst	r3, #65536
 1144 0044 05D0     		beq	.L146
 1145 0046 064B     		ldr	r3, .L149+4
 1146 0048 B3FBF2F3 		udiv	r3, r3, r2
 1147 004c 00FB03F0 		mul	r0, r0, r3
 1148 0050 7047     		bx	lr
 1149              	.L146:
 1150 0052 064B     		ldr	r3, .L149+16
 1151 0054 03FB00F0 		mul	r0, r3, r0
ARM GAS  /tmp/ccD0QyxT.s 			page 21


 1152 0058 7047     		bx	lr
 1153              	.L150:
 1154 005a 00BF     		.align	2
 1155              	.L149:
 1156 005c 00100240 		.word	1073876992
 1157 0060 00127A00 		.word	8000000
 1158 0064 00000000 		.word	.LANCHOR0
 1159 0068 00000000 		.word	.LANCHOR1
 1160 006c 00093D00 		.word	4000000
 1162              		.section	.text.HAL_RCC_ClockConfig,"ax",%progbits
 1163              		.align	1
 1164              		.global	HAL_RCC_ClockConfig
 1165              		.syntax unified
 1166              		.thumb
 1167              		.thumb_func
 1168              		.fpu fpv4-sp-d16
 1170              	HAL_RCC_ClockConfig:
 1171              		@ args = 0, pretend = 0, frame = 0
 1172              		@ frame_needed = 0, uses_anonymous_args = 0
 1173 0000 0028     		cmp	r0, #0
 1174 0002 00F0BE80 		beq	.L170
 1175 0006 70B5     		push	{r4, r5, r6, lr}
 1176 0008 0D46     		mov	r5, r1
 1177 000a 0446     		mov	r4, r0
 1178 000c 614B     		ldr	r3, .L183
 1179 000e 1B68     		ldr	r3, [r3]
 1180 0010 03F00703 		and	r3, r3, #7
 1181 0014 8B42     		cmp	r3, r1
 1182 0016 0BD2     		bcs	.L153
 1183 0018 5E4A     		ldr	r2, .L183
 1184 001a 1368     		ldr	r3, [r2]
 1185 001c 23F00703 		bic	r3, r3, #7
 1186 0020 0B43     		orrs	r3, r3, r1
 1187 0022 1360     		str	r3, [r2]
 1188 0024 1368     		ldr	r3, [r2]
 1189 0026 03F00703 		and	r3, r3, #7
 1190 002a 8B42     		cmp	r3, r1
 1191 002c 40F0AB80 		bne	.L171
 1192              	.L153:
 1193 0030 2368     		ldr	r3, [r4]
 1194 0032 13F0020F 		tst	r3, #2
 1195 0036 06D0     		beq	.L154
 1196 0038 574A     		ldr	r2, .L183+4
 1197 003a 5368     		ldr	r3, [r2, #4]
 1198 003c 23F0F003 		bic	r3, r3, #240
 1199 0040 A168     		ldr	r1, [r4, #8]
 1200 0042 0B43     		orrs	r3, r3, r1
 1201 0044 5360     		str	r3, [r2, #4]
 1202              	.L154:
 1203 0046 2368     		ldr	r3, [r4]
 1204 0048 13F0010F 		tst	r3, #1
 1205 004c 5AD0     		beq	.L155
 1206 004e 6368     		ldr	r3, [r4, #4]
 1207 0050 012B     		cmp	r3, #1
 1208 0052 2DD0     		beq	.L181
 1209 0054 022B     		cmp	r3, #2
 1210 0056 40D0     		beq	.L182
ARM GAS  /tmp/ccD0QyxT.s 			page 22


 1211 0058 0222     		movs	r2, #2
 1212              		.syntax unified
 1213              	@ 988 "../Drivers/CMSIS/Include/cmsis_gcc.h" 1
 1214 005a 92FAA2F2 		rbit r2, r2
 1215              	@ 0 "" 2
 1216              		.thumb
 1217              		.syntax unified
 1218 005e 4E4A     		ldr	r2, .L183+4
 1219 0060 1068     		ldr	r0, [r2]
 1220 0062 0222     		movs	r2, #2
 1221              		.syntax unified
 1222              	@ 988 "../Drivers/CMSIS/Include/cmsis_gcc.h" 1
 1223 0064 92FAA2F2 		rbit r2, r2
 1224              	@ 0 "" 2
 1225              		.thumb
 1226              		.syntax unified
 1227 0068 B2FA82F2 		clz	r2, r2
 1228 006c 02F01F02 		and	r2, r2, #31
 1229 0070 0121     		movs	r1, #1
 1230 0072 01FA02F2 		lsl	r2, r1, r2
 1231 0076 1042     		tst	r0, r2
 1232 0078 00F08780 		beq	.L174
 1233              	.L159:
 1234 007c 4649     		ldr	r1, .L183+4
 1235 007e 4A68     		ldr	r2, [r1, #4]
 1236 0080 22F00302 		bic	r2, r2, #3
 1237 0084 1343     		orrs	r3, r3, r2
 1238 0086 4B60     		str	r3, [r1, #4]
 1239 0088 FFF7FEFF 		bl	HAL_GetTick
 1240 008c 0646     		mov	r6, r0
 1241              	.L165:
 1242 008e 424B     		ldr	r3, .L183+4
 1243 0090 5B68     		ldr	r3, [r3, #4]
 1244 0092 03F00C03 		and	r3, r3, #12
 1245 0096 6268     		ldr	r2, [r4, #4]
 1246 0098 B3EB820F 		cmp	r3, r2, lsl #2
 1247 009c 32D0     		beq	.L155
 1248 009e FFF7FEFF 		bl	HAL_GetTick
 1249 00a2 801B     		subs	r0, r0, r6
 1250 00a4 41F28833 		movw	r3, #5000
 1251 00a8 9842     		cmp	r0, r3
 1252 00aa F0D9     		bls	.L165
 1253 00ac 0320     		movs	r0, #3
 1254 00ae 67E0     		b	.L152
 1255              	.L181:
 1256 00b0 4FF40032 		mov	r2, #131072
 1257              		.syntax unified
 1258              	@ 988 "../Drivers/CMSIS/Include/cmsis_gcc.h" 1
 1259 00b4 92FAA2F2 		rbit r2, r2
 1260              	@ 0 "" 2
 1261              		.thumb
 1262              		.syntax unified
 1263 00b8 374A     		ldr	r2, .L183+4
 1264 00ba 1068     		ldr	r0, [r2]
 1265 00bc 4FF40032 		mov	r2, #131072
 1266              		.syntax unified
 1267              	@ 988 "../Drivers/CMSIS/Include/cmsis_gcc.h" 1
ARM GAS  /tmp/ccD0QyxT.s 			page 23


 1268 00c0 92FAA2F2 		rbit r2, r2
 1269              	@ 0 "" 2
 1270              		.thumb
 1271              		.syntax unified
 1272 00c4 B2FA82F2 		clz	r2, r2
 1273 00c8 02F01F02 		and	r2, r2, #31
 1274 00cc 0121     		movs	r1, #1
 1275 00ce 01FA02F2 		lsl	r2, r1, r2
 1276 00d2 0242     		tst	r2, r0
 1277 00d4 D2D1     		bne	.L159
 1278 00d6 0120     		movs	r0, #1
 1279 00d8 52E0     		b	.L152
 1280              	.L182:
 1281 00da 4FF00072 		mov	r2, #33554432
 1282              		.syntax unified
 1283              	@ 988 "../Drivers/CMSIS/Include/cmsis_gcc.h" 1
 1284 00de 92FAA2F2 		rbit r2, r2
 1285              	@ 0 "" 2
 1286              		.thumb
 1287              		.syntax unified
 1288 00e2 2D4A     		ldr	r2, .L183+4
 1289 00e4 1068     		ldr	r0, [r2]
 1290 00e6 4FF00072 		mov	r2, #33554432
 1291              		.syntax unified
 1292              	@ 988 "../Drivers/CMSIS/Include/cmsis_gcc.h" 1
 1293 00ea 92FAA2F2 		rbit r2, r2
 1294              	@ 0 "" 2
 1295              		.thumb
 1296              		.syntax unified
 1297 00ee B2FA82F2 		clz	r2, r2
 1298 00f2 02F01F02 		and	r2, r2, #31
 1299 00f6 0121     		movs	r1, #1
 1300 00f8 01FA02F2 		lsl	r2, r1, r2
 1301 00fc 1042     		tst	r0, r2
 1302 00fe BDD1     		bne	.L159
 1303 0100 0120     		movs	r0, #1
 1304 0102 3DE0     		b	.L152
 1305              	.L155:
 1306 0104 234B     		ldr	r3, .L183
 1307 0106 1B68     		ldr	r3, [r3]
 1308 0108 03F00703 		and	r3, r3, #7
 1309 010c AB42     		cmp	r3, r5
 1310 010e 0AD9     		bls	.L167
 1311 0110 204A     		ldr	r2, .L183
 1312 0112 1368     		ldr	r3, [r2]
 1313 0114 23F00703 		bic	r3, r3, #7
 1314 0118 2B43     		orrs	r3, r3, r5
 1315 011a 1360     		str	r3, [r2]
 1316 011c 1368     		ldr	r3, [r2]
 1317 011e 03F00703 		and	r3, r3, #7
 1318 0122 AB42     		cmp	r3, r5
 1319 0124 33D1     		bne	.L176
 1320              	.L167:
 1321 0126 2368     		ldr	r3, [r4]
 1322 0128 13F0040F 		tst	r3, #4
 1323 012c 06D0     		beq	.L168
 1324 012e 1A4A     		ldr	r2, .L183+4
ARM GAS  /tmp/ccD0QyxT.s 			page 24


 1325 0130 5368     		ldr	r3, [r2, #4]
 1326 0132 23F4E063 		bic	r3, r3, #1792
 1327 0136 E168     		ldr	r1, [r4, #12]
 1328 0138 0B43     		orrs	r3, r3, r1
 1329 013a 5360     		str	r3, [r2, #4]
 1330              	.L168:
 1331 013c 2368     		ldr	r3, [r4]
 1332 013e 13F0080F 		tst	r3, #8
 1333 0142 07D0     		beq	.L169
 1334 0144 144A     		ldr	r2, .L183+4
 1335 0146 5368     		ldr	r3, [r2, #4]
 1336 0148 23F46053 		bic	r3, r3, #14336
 1337 014c 2169     		ldr	r1, [r4, #16]
 1338 014e 43EAC103 		orr	r3, r3, r1, lsl #3
 1339 0152 5360     		str	r3, [r2, #4]
 1340              	.L169:
 1341 0154 FFF7FEFF 		bl	HAL_RCC_GetSysClockFreq
 1342 0158 0F4B     		ldr	r3, .L183+4
 1343 015a 5B68     		ldr	r3, [r3, #4]
 1344 015c 03F0F003 		and	r3, r3, #240
 1345 0160 F022     		movs	r2, #240
 1346              		.syntax unified
 1347              	@ 988 "../Drivers/CMSIS/Include/cmsis_gcc.h" 1
 1348 0162 92FAA2F2 		rbit r2, r2
 1349              	@ 0 "" 2
 1350              		.thumb
 1351              		.syntax unified
 1352 0166 B2FA82F2 		clz	r2, r2
 1353 016a D340     		lsrs	r3, r3, r2
 1354 016c 0B4A     		ldr	r2, .L183+8
 1355 016e D35C     		ldrb	r3, [r2, r3]	@ zero_extendqisi2
 1356 0170 D840     		lsrs	r0, r0, r3
 1357 0172 0B4B     		ldr	r3, .L183+12
 1358 0174 1860     		str	r0, [r3]
 1359 0176 0B4B     		ldr	r3, .L183+16
 1360 0178 1868     		ldr	r0, [r3]
 1361 017a FFF7FEFF 		bl	HAL_InitTick
 1362 017e 0020     		movs	r0, #0
 1363              	.L152:
 1364 0180 70BD     		pop	{r4, r5, r6, pc}
 1365              	.L170:
 1366 0182 0120     		movs	r0, #1
 1367 0184 7047     		bx	lr
 1368              	.L171:
 1369 0186 0120     		movs	r0, #1
 1370 0188 FAE7     		b	.L152
 1371              	.L174:
 1372 018a 0120     		movs	r0, #1
 1373 018c F8E7     		b	.L152
 1374              	.L176:
 1375 018e 0120     		movs	r0, #1
 1376 0190 F6E7     		b	.L152
 1377              	.L184:
 1378 0192 00BF     		.align	2
 1379              	.L183:
 1380 0194 00200240 		.word	1073881088
 1381 0198 00100240 		.word	1073876992
ARM GAS  /tmp/ccD0QyxT.s 			page 25


 1382 019c 00000000 		.word	AHBPrescTable
 1383 01a0 00000000 		.word	SystemCoreClock
 1384 01a4 00000000 		.word	uwTickPrio
 1386              		.section	.text.HAL_RCC_GetHCLKFreq,"ax",%progbits
 1387              		.align	1
 1388              		.global	HAL_RCC_GetHCLKFreq
 1389              		.syntax unified
 1390              		.thumb
 1391              		.thumb_func
 1392              		.fpu fpv4-sp-d16
 1394              	HAL_RCC_GetHCLKFreq:
 1395              		@ args = 0, pretend = 0, frame = 0
 1396              		@ frame_needed = 0, uses_anonymous_args = 0
 1397              		@ link register save eliminated.
 1398 0000 014B     		ldr	r3, .L186
 1399 0002 1868     		ldr	r0, [r3]
 1400 0004 7047     		bx	lr
 1401              	.L187:
 1402 0006 00BF     		.align	2
 1403              	.L186:
 1404 0008 00000000 		.word	SystemCoreClock
 1406              		.section	.text.HAL_RCC_GetPCLK1Freq,"ax",%progbits
 1407              		.align	1
 1408              		.global	HAL_RCC_GetPCLK1Freq
 1409              		.syntax unified
 1410              		.thumb
 1411              		.thumb_func
 1412              		.fpu fpv4-sp-d16
 1414              	HAL_RCC_GetPCLK1Freq:
 1415              		@ args = 0, pretend = 0, frame = 0
 1416              		@ frame_needed = 0, uses_anonymous_args = 0
 1417 0000 08B5     		push	{r3, lr}
 1418 0002 FFF7FEFF 		bl	HAL_RCC_GetHCLKFreq
 1419 0006 074B     		ldr	r3, .L190
 1420 0008 5B68     		ldr	r3, [r3, #4]
 1421 000a 03F4E063 		and	r3, r3, #1792
 1422 000e 4FF4E062 		mov	r2, #1792
 1423              		.syntax unified
 1424              	@ 988 "../Drivers/CMSIS/Include/cmsis_gcc.h" 1
 1425 0012 92FAA2F2 		rbit r2, r2
 1426              	@ 0 "" 2
 1427              		.thumb
 1428              		.syntax unified
 1429 0016 B2FA82F2 		clz	r2, r2
 1430 001a D340     		lsrs	r3, r3, r2
 1431 001c 024A     		ldr	r2, .L190+4
 1432 001e D35C     		ldrb	r3, [r2, r3]	@ zero_extendqisi2
 1433 0020 D840     		lsrs	r0, r0, r3
 1434 0022 08BD     		pop	{r3, pc}
 1435              	.L191:
 1436              		.align	2
 1437              	.L190:
 1438 0024 00100240 		.word	1073876992
 1439 0028 00000000 		.word	APBPrescTable
 1441              		.section	.text.HAL_RCC_GetPCLK2Freq,"ax",%progbits
 1442              		.align	1
 1443              		.global	HAL_RCC_GetPCLK2Freq
ARM GAS  /tmp/ccD0QyxT.s 			page 26


 1444              		.syntax unified
 1445              		.thumb
 1446              		.thumb_func
 1447              		.fpu fpv4-sp-d16
 1449              	HAL_RCC_GetPCLK2Freq:
 1450              		@ args = 0, pretend = 0, frame = 0
 1451              		@ frame_needed = 0, uses_anonymous_args = 0
 1452 0000 08B5     		push	{r3, lr}
 1453 0002 FFF7FEFF 		bl	HAL_RCC_GetHCLKFreq
 1454 0006 074B     		ldr	r3, .L194
 1455 0008 5B68     		ldr	r3, [r3, #4]
 1456 000a 03F46053 		and	r3, r3, #14336
 1457 000e 4FF46052 		mov	r2, #14336
 1458              		.syntax unified
 1459              	@ 988 "../Drivers/CMSIS/Include/cmsis_gcc.h" 1
 1460 0012 92FAA2F2 		rbit r2, r2
 1461              	@ 0 "" 2
 1462              		.thumb
 1463              		.syntax unified
 1464 0016 B2FA82F2 		clz	r2, r2
 1465 001a D340     		lsrs	r3, r3, r2
 1466 001c 024A     		ldr	r2, .L194+4
 1467 001e D35C     		ldrb	r3, [r2, r3]	@ zero_extendqisi2
 1468 0020 D840     		lsrs	r0, r0, r3
 1469 0022 08BD     		pop	{r3, pc}
 1470              	.L195:
 1471              		.align	2
 1472              	.L194:
 1473 0024 00100240 		.word	1073876992
 1474 0028 00000000 		.word	APBPrescTable
 1476              		.section	.text.HAL_RCC_GetOscConfig,"ax",%progbits
 1477              		.align	1
 1478              		.global	HAL_RCC_GetOscConfig
 1479              		.syntax unified
 1480              		.thumb
 1481              		.thumb_func
 1482              		.fpu fpv4-sp-d16
 1484              	HAL_RCC_GetOscConfig:
 1485              		@ args = 0, pretend = 0, frame = 0
 1486              		@ frame_needed = 0, uses_anonymous_args = 0
 1487              		@ link register save eliminated.
 1488 0000 0F23     		movs	r3, #15
 1489 0002 0360     		str	r3, [r0]
 1490 0004 2D4B     		ldr	r3, .L209
 1491 0006 1B68     		ldr	r3, [r3]
 1492 0008 13F4802F 		tst	r3, #262144
 1493 000c 36D0     		beq	.L197
 1494 000e 4FF4A023 		mov	r3, #327680
 1495 0012 4360     		str	r3, [r0, #4]
 1496              	.L198:
 1497 0014 294A     		ldr	r2, .L209
 1498 0016 D36A     		ldr	r3, [r2, #44]
 1499 0018 03F00F03 		and	r3, r3, #15
 1500 001c 8360     		str	r3, [r0, #8]
 1501 001e 1368     		ldr	r3, [r2]
 1502 0020 13F0010F 		tst	r3, #1
 1503 0024 36D0     		beq	.L200
ARM GAS  /tmp/ccD0QyxT.s 			page 27


 1504 0026 0123     		movs	r3, #1
 1505 0028 0361     		str	r3, [r0, #16]
 1506              	.L201:
 1507 002a 2449     		ldr	r1, .L209
 1508 002c 0B68     		ldr	r3, [r1]
 1509 002e 03F0F803 		and	r3, r3, #248
 1510 0032 F822     		movs	r2, #248
 1511              		.syntax unified
 1512              	@ 988 "../Drivers/CMSIS/Include/cmsis_gcc.h" 1
 1513 0034 92FAA2F2 		rbit r2, r2
 1514              	@ 0 "" 2
 1515              		.thumb
 1516              		.syntax unified
 1517 0038 B2FA82F2 		clz	r2, r2
 1518 003c D340     		lsrs	r3, r3, r2
 1519 003e 4361     		str	r3, [r0, #20]
 1520 0040 0B6A     		ldr	r3, [r1, #32]
 1521 0042 13F0040F 		tst	r3, #4
 1522 0046 28D0     		beq	.L202
 1523 0048 0523     		movs	r3, #5
 1524 004a C360     		str	r3, [r0, #12]
 1525              	.L203:
 1526 004c 1B4B     		ldr	r3, .L209
 1527 004e 5B6A     		ldr	r3, [r3, #36]
 1528 0050 13F0010F 		tst	r3, #1
 1529 0054 2CD0     		beq	.L205
 1530 0056 0123     		movs	r3, #1
 1531 0058 8361     		str	r3, [r0, #24]
 1532              	.L206:
 1533 005a 184B     		ldr	r3, .L209
 1534 005c 1B68     		ldr	r3, [r3]
 1535 005e 13F0807F 		tst	r3, #16777216
 1536 0062 28D0     		beq	.L207
 1537 0064 0223     		movs	r3, #2
 1538 0066 C361     		str	r3, [r0, #28]
 1539              	.L208:
 1540 0068 144A     		ldr	r2, .L209
 1541 006a 5368     		ldr	r3, [r2, #4]
 1542 006c 03F48033 		and	r3, r3, #65536
 1543 0070 0362     		str	r3, [r0, #32]
 1544 0072 5368     		ldr	r3, [r2, #4]
 1545 0074 03F47013 		and	r3, r3, #3932160
 1546 0078 4362     		str	r3, [r0, #36]
 1547 007a 7047     		bx	lr
 1548              	.L197:
 1549 007c 0F4B     		ldr	r3, .L209
 1550 007e 1B68     		ldr	r3, [r3]
 1551 0080 13F4803F 		tst	r3, #65536
 1552 0084 03D0     		beq	.L199
 1553 0086 4FF48033 		mov	r3, #65536
 1554 008a 4360     		str	r3, [r0, #4]
 1555 008c C2E7     		b	.L198
 1556              	.L199:
 1557 008e 0023     		movs	r3, #0
 1558 0090 4360     		str	r3, [r0, #4]
 1559 0092 BFE7     		b	.L198
 1560              	.L200:
ARM GAS  /tmp/ccD0QyxT.s 			page 28


 1561 0094 0023     		movs	r3, #0
 1562 0096 0361     		str	r3, [r0, #16]
 1563 0098 C7E7     		b	.L201
 1564              	.L202:
 1565 009a 084B     		ldr	r3, .L209
 1566 009c 1B6A     		ldr	r3, [r3, #32]
 1567 009e 13F0010F 		tst	r3, #1
 1568 00a2 02D0     		beq	.L204
 1569 00a4 0123     		movs	r3, #1
 1570 00a6 C360     		str	r3, [r0, #12]
 1571 00a8 D0E7     		b	.L203
 1572              	.L204:
 1573 00aa 0023     		movs	r3, #0
 1574 00ac C360     		str	r3, [r0, #12]
 1575 00ae CDE7     		b	.L203
 1576              	.L205:
 1577 00b0 0023     		movs	r3, #0
 1578 00b2 8361     		str	r3, [r0, #24]
 1579 00b4 D1E7     		b	.L206
 1580              	.L207:
 1581 00b6 0123     		movs	r3, #1
 1582 00b8 C361     		str	r3, [r0, #28]
 1583 00ba D5E7     		b	.L208
 1584              	.L210:
 1585              		.align	2
 1586              	.L209:
 1587 00bc 00100240 		.word	1073876992
 1589              		.section	.text.HAL_RCC_GetClockConfig,"ax",%progbits
 1590              		.align	1
 1591              		.global	HAL_RCC_GetClockConfig
 1592              		.syntax unified
 1593              		.thumb
 1594              		.thumb_func
 1595              		.fpu fpv4-sp-d16
 1597              	HAL_RCC_GetClockConfig:
 1598              		@ args = 0, pretend = 0, frame = 0
 1599              		@ frame_needed = 0, uses_anonymous_args = 0
 1600              		@ link register save eliminated.
 1601 0000 0F23     		movs	r3, #15
 1602 0002 0360     		str	r3, [r0]
 1603 0004 0B4B     		ldr	r3, .L212
 1604 0006 5A68     		ldr	r2, [r3, #4]
 1605 0008 02F00302 		and	r2, r2, #3
 1606 000c 4260     		str	r2, [r0, #4]
 1607 000e 5A68     		ldr	r2, [r3, #4]
 1608 0010 02F0F002 		and	r2, r2, #240
 1609 0014 8260     		str	r2, [r0, #8]
 1610 0016 5A68     		ldr	r2, [r3, #4]
 1611 0018 02F4E062 		and	r2, r2, #1792
 1612 001c C260     		str	r2, [r0, #12]
 1613 001e 5B68     		ldr	r3, [r3, #4]
 1614 0020 DB08     		lsrs	r3, r3, #3
 1615 0022 03F4E063 		and	r3, r3, #1792
 1616 0026 0361     		str	r3, [r0, #16]
 1617 0028 034B     		ldr	r3, .L212+4
 1618 002a 1B68     		ldr	r3, [r3]
 1619 002c 03F00703 		and	r3, r3, #7
ARM GAS  /tmp/ccD0QyxT.s 			page 29


 1620 0030 0B60     		str	r3, [r1]
 1621 0032 7047     		bx	lr
 1622              	.L213:
 1623              		.align	2
 1624              	.L212:
 1625 0034 00100240 		.word	1073876992
 1626 0038 00200240 		.word	1073881088
 1628              		.section	.text.HAL_RCC_CSSCallback,"ax",%progbits
 1629              		.align	1
 1630              		.weak	HAL_RCC_CSSCallback
 1631              		.syntax unified
 1632              		.thumb
 1633              		.thumb_func
 1634              		.fpu fpv4-sp-d16
 1636              	HAL_RCC_CSSCallback:
 1637              		@ args = 0, pretend = 0, frame = 0
 1638              		@ frame_needed = 0, uses_anonymous_args = 0
 1639              		@ link register save eliminated.
 1640 0000 7047     		bx	lr
 1642              		.section	.text.HAL_RCC_NMI_IRQHandler,"ax",%progbits
 1643              		.align	1
 1644              		.global	HAL_RCC_NMI_IRQHandler
 1645              		.syntax unified
 1646              		.thumb
 1647              		.thumb_func
 1648              		.fpu fpv4-sp-d16
 1650              	HAL_RCC_NMI_IRQHandler:
 1651              		@ args = 0, pretend = 0, frame = 0
 1652              		@ frame_needed = 0, uses_anonymous_args = 0
 1653 0000 08B5     		push	{r3, lr}
 1654 0002 064B     		ldr	r3, .L219
 1655 0004 9B68     		ldr	r3, [r3, #8]
 1656 0006 13F0800F 		tst	r3, #128
 1657 000a 00D1     		bne	.L218
 1658              	.L215:
 1659 000c 08BD     		pop	{r3, pc}
 1660              	.L218:
 1661 000e FFF7FEFF 		bl	HAL_RCC_CSSCallback
 1662 0012 034B     		ldr	r3, .L219+4
 1663 0014 8022     		movs	r2, #128
 1664 0016 1A70     		strb	r2, [r3]
 1665 0018 F8E7     		b	.L215
 1666              	.L220:
 1667 001a 00BF     		.align	2
 1668              	.L219:
 1669 001c 00100240 		.word	1073876992
 1670 0020 0A100240 		.word	1073877002
 1672              		.global	aPredivFactorTable
 1673              		.global	aPLLMULFactorTable
 1674              		.section	.rodata.aPLLMULFactorTable,"a"
 1675              		.align	2
 1676              		.set	.LANCHOR0,. + 0
 1679              	aPLLMULFactorTable:
 1680 0000 02030405 		.ascii	"\002\003\004\005\006\007\010\011\012\013\014\015\016"
 1680      06070809 
 1680      0A0B0C0D 
 1680      0E
ARM GAS  /tmp/ccD0QyxT.s 			page 30


 1681 000d 0F1010   		.ascii	"\017\020\020"
 1682              		.section	.rodata.aPredivFactorTable,"a"
 1683              		.align	2
 1684              		.set	.LANCHOR1,. + 0
 1687              	aPredivFactorTable:
 1688 0000 01020304 		.ascii	"\001\002\003\004\005\006\007\010\011\012\013\014\015"
 1688      05060708 
 1688      090A0B0C 
 1688      0D
 1689 000d 0E0F10   		.ascii	"\016\017\020"
 1690              		.ident	"GCC: (15:9-2019-q4-0ubuntu1) 9.2.1 20191025 (release) [ARM/arm-9-branch revision 277599]"
ARM GAS  /tmp/ccD0QyxT.s 			page 31

