ARM GAS  /tmp/ccCSJeZJ.s 			page 1


   1              		.cpu cortex-m4
   2              		.eabi_attribute 27, 1
   3              		.eabi_attribute 28, 1
   4              		.eabi_attribute 20, 1
   5              		.eabi_attribute 21, 1
   6              		.eabi_attribute 23, 3
   7              		.eabi_attribute 24, 1
   8              		.eabi_attribute 25, 1
   9              		.eabi_attribute 26, 1
  10              		.eabi_attribute 30, 1
  11              		.eabi_attribute 34, 1
  12              		.eabi_attribute 18, 4
  13              		.file	"stm32f3xx_hal_flash.c"
  14              		.text
  15              		.section	.text.FLASH_Program_HalfWord,"ax",%progbits
  16              		.align	1
  17              		.arch armv7e-m
  18              		.syntax unified
  19              		.thumb
  20              		.thumb_func
  21              		.fpu fpv4-sp-d16
  23              	FLASH_Program_HalfWord:
  24              		@ args = 0, pretend = 0, frame = 0
  25              		@ frame_needed = 0, uses_anonymous_args = 0
  26              		@ link register save eliminated.
  27 0000 044B     		ldr	r3, .L2
  28 0002 0022     		movs	r2, #0
  29 0004 DA61     		str	r2, [r3, #28]
  30 0006 044A     		ldr	r2, .L2+4
  31 0008 1369     		ldr	r3, [r2, #16]
  32 000a 43F00103 		orr	r3, r3, #1
  33 000e 1361     		str	r3, [r2, #16]
  34 0010 0180     		strh	r1, [r0]	@ movhi
  35 0012 7047     		bx	lr
  36              	.L3:
  37              		.align	2
  38              	.L2:
  39 0014 00000000 		.word	pFlash
  40 0018 00200240 		.word	1073881088
  42              		.section	.text.FLASH_SetErrorCode,"ax",%progbits
  43              		.align	1
  44              		.syntax unified
  45              		.thumb
  46              		.thumb_func
  47              		.fpu fpv4-sp-d16
  49              	FLASH_SetErrorCode:
  50              		@ args = 0, pretend = 0, frame = 0
  51              		@ frame_needed = 0, uses_anonymous_args = 0
  52              		@ link register save eliminated.
  53 0000 0C4B     		ldr	r3, .L7
  54 0002 DB68     		ldr	r3, [r3, #12]
  55 0004 13F01003 		ands	r3, r3, #16
  56 0008 05D0     		beq	.L5
  57 000a 0B4A     		ldr	r2, .L7+4
  58 000c D369     		ldr	r3, [r2, #28]
  59 000e 43F00203 		orr	r3, r3, #2
  60 0012 D361     		str	r3, [r2, #28]
ARM GAS  /tmp/ccCSJeZJ.s 			page 2


  61 0014 1023     		movs	r3, #16
  62              	.L5:
  63 0016 074A     		ldr	r2, .L7
  64 0018 D268     		ldr	r2, [r2, #12]
  65 001a 12F0040F 		tst	r2, #4
  66 001e 06D0     		beq	.L6
  67 0020 0549     		ldr	r1, .L7+4
  68 0022 CA69     		ldr	r2, [r1, #28]
  69 0024 42F00102 		orr	r2, r2, #1
  70 0028 CA61     		str	r2, [r1, #28]
  71 002a 43F00403 		orr	r3, r3, #4
  72              	.L6:
  73 002e 014A     		ldr	r2, .L7
  74 0030 D360     		str	r3, [r2, #12]
  75 0032 7047     		bx	lr
  76              	.L8:
  77              		.align	2
  78              	.L7:
  79 0034 00200240 		.word	1073881088
  80 0038 00000000 		.word	pFlash
  82              		.section	.text.HAL_FLASH_Program_IT,"ax",%progbits
  83              		.align	1
  84              		.global	HAL_FLASH_Program_IT
  85              		.syntax unified
  86              		.thumb
  87              		.thumb_func
  88              		.fpu fpv4-sp-d16
  90              	HAL_FLASH_Program_IT:
  91              		@ args = 0, pretend = 0, frame = 0
  92              		@ frame_needed = 0, uses_anonymous_args = 0
  93 0000 70B5     		push	{r4, r5, r6, lr}
  94 0002 1D46     		mov	r5, r3
  95 0004 164B     		ldr	r3, .L18
  96 0006 1B7E     		ldrb	r3, [r3, #24]	@ zero_extendqisi2
  97 0008 012B     		cmp	r3, #1
  98 000a 26D0     		beq	.L14
  99 000c 0646     		mov	r6, r0
 100 000e 0846     		mov	r0, r1
 101 0010 1446     		mov	r4, r2
 102 0012 134B     		ldr	r3, .L18
 103 0014 0122     		movs	r2, #1
 104 0016 1A76     		strb	r2, [r3, #24]
 105 0018 1249     		ldr	r1, .L18+4
 106 001a 0A69     		ldr	r2, [r1, #16]
 107 001c 42F4A052 		orr	r2, r2, #5120
 108 0020 0A61     		str	r2, [r1, #16]
 109 0022 9860     		str	r0, [r3, #8]
 110 0024 C3E90445 		strd	r4, [r3, #16]
 111 0028 012E     		cmp	r6, #1
 112 002a 0BD0     		beq	.L16
 113 002c 022E     		cmp	r6, #2
 114 002e 0ED0     		beq	.L17
 115 0030 0B4B     		ldr	r3, .L18
 116 0032 0522     		movs	r2, #5
 117 0034 1A70     		strb	r2, [r3]
 118 0036 0422     		movs	r2, #4
 119 0038 5A60     		str	r2, [r3, #4]
ARM GAS  /tmp/ccCSJeZJ.s 			page 3


 120              	.L12:
 121 003a A1B2     		uxth	r1, r4
 122 003c FFF7FEFF 		bl	FLASH_Program_HalfWord
 123 0040 0020     		movs	r0, #0
 124              	.L10:
 125 0042 70BD     		pop	{r4, r5, r6, pc}
 126              	.L16:
 127 0044 0322     		movs	r2, #3
 128 0046 1A70     		strb	r2, [r3]
 129 0048 0122     		movs	r2, #1
 130 004a 5A60     		str	r2, [r3, #4]
 131 004c F5E7     		b	.L12
 132              	.L17:
 133 004e 044B     		ldr	r3, .L18
 134 0050 0422     		movs	r2, #4
 135 0052 1A70     		strb	r2, [r3]
 136 0054 0222     		movs	r2, #2
 137 0056 5A60     		str	r2, [r3, #4]
 138 0058 EFE7     		b	.L12
 139              	.L14:
 140 005a 0220     		movs	r0, #2
 141 005c F1E7     		b	.L10
 142              	.L19:
 143 005e 00BF     		.align	2
 144              	.L18:
 145 0060 00000000 		.word	pFlash
 146 0064 00200240 		.word	1073881088
 148              		.section	.text.HAL_FLASH_EndOfOperationCallback,"ax",%progbits
 149              		.align	1
 150              		.weak	HAL_FLASH_EndOfOperationCallback
 151              		.syntax unified
 152              		.thumb
 153              		.thumb_func
 154              		.fpu fpv4-sp-d16
 156              	HAL_FLASH_EndOfOperationCallback:
 157              		@ args = 0, pretend = 0, frame = 0
 158              		@ frame_needed = 0, uses_anonymous_args = 0
 159              		@ link register save eliminated.
 160 0000 7047     		bx	lr
 162              		.section	.text.HAL_FLASH_OperationErrorCallback,"ax",%progbits
 163              		.align	1
 164              		.weak	HAL_FLASH_OperationErrorCallback
 165              		.syntax unified
 166              		.thumb
 167              		.thumb_func
 168              		.fpu fpv4-sp-d16
 170              	HAL_FLASH_OperationErrorCallback:
 171              		@ args = 0, pretend = 0, frame = 0
 172              		@ frame_needed = 0, uses_anonymous_args = 0
 173              		@ link register save eliminated.
 174 0000 7047     		bx	lr
 176              		.section	.text.HAL_FLASH_IRQHandler,"ax",%progbits
 177              		.align	1
 178              		.global	HAL_FLASH_IRQHandler
 179              		.syntax unified
 180              		.thumb
 181              		.thumb_func
ARM GAS  /tmp/ccCSJeZJ.s 			page 4


 182              		.fpu fpv4-sp-d16
 184              	HAL_FLASH_IRQHandler:
 185              		@ args = 0, pretend = 0, frame = 0
 186              		@ frame_needed = 0, uses_anonymous_args = 0
 187 0000 F8B5     		push	{r3, r4, r5, r6, r7, lr}
 188 0002 524B     		ldr	r3, .L40
 189 0004 DB68     		ldr	r3, [r3, #12]
 190 0006 13F0100F 		tst	r3, #16
 191 000a 04D1     		bne	.L23
 192 000c 4F4B     		ldr	r3, .L40
 193 000e DB68     		ldr	r3, [r3, #12]
 194 0010 13F0040F 		tst	r3, #4
 195 0014 0BD0     		beq	.L24
 196              	.L23:
 197 0016 4E4C     		ldr	r4, .L40+4
 198 0018 A568     		ldr	r5, [r4, #8]
 199 001a 4FF0FF33 		mov	r3, #-1
 200 001e A360     		str	r3, [r4, #8]
 201 0020 FFF7FEFF 		bl	FLASH_SetErrorCode
 202 0024 2846     		mov	r0, r5
 203 0026 FFF7FEFF 		bl	HAL_FLASH_OperationErrorCallback
 204 002a 0023     		movs	r3, #0
 205 002c 2370     		strb	r3, [r4]
 206              	.L24:
 207 002e 474B     		ldr	r3, .L40
 208 0030 DB68     		ldr	r3, [r3, #12]
 209 0032 13F0200F 		tst	r3, #32
 210 0036 2BD0     		beq	.L25
 211 0038 444B     		ldr	r3, .L40
 212 003a 2022     		movs	r2, #32
 213 003c DA60     		str	r2, [r3, #12]
 214 003e 444B     		ldr	r3, .L40+4
 215 0040 1B78     		ldrb	r3, [r3]	@ zero_extendqisi2
 216 0042 2BB3     		cbz	r3, .L25
 217 0044 424B     		ldr	r3, .L40+4
 218 0046 1B78     		ldrb	r3, [r3]	@ zero_extendqisi2
 219 0048 DBB2     		uxtb	r3, r3
 220 004a 012B     		cmp	r3, #1
 221 004c 30D0     		beq	.L35
 222 004e 404B     		ldr	r3, .L40+4
 223 0050 1B78     		ldrb	r3, [r3]	@ zero_extendqisi2
 224 0052 DBB2     		uxtb	r3, r3
 225 0054 022B     		cmp	r3, #2
 226 0056 4AD0     		beq	.L36
 227 0058 3D4B     		ldr	r3, .L40+4
 228 005a 5A68     		ldr	r2, [r3, #4]
 229 005c 013A     		subs	r2, r2, #1
 230 005e 5A60     		str	r2, [r3, #4]
 231 0060 5B68     		ldr	r3, [r3, #4]
 232 0062 002B     		cmp	r3, #0
 233 0064 4FD1     		bne	.L37
 234 0066 3A4B     		ldr	r3, .L40+4
 235 0068 1B78     		ldrb	r3, [r3]	@ zero_extendqisi2
 236 006a DBB2     		uxtb	r3, r3
 237 006c 032B     		cmp	r3, #3
 238 006e 62D0     		beq	.L38
 239 0070 374B     		ldr	r3, .L40+4
ARM GAS  /tmp/ccCSJeZJ.s 			page 5


 240 0072 1B78     		ldrb	r3, [r3]	@ zero_extendqisi2
 241 0074 DBB2     		uxtb	r3, r3
 242 0076 042B     		cmp	r3, #4
 243 0078 62D0     		beq	.L39
 244 007a 354B     		ldr	r3, .L40+4
 245 007c 9868     		ldr	r0, [r3, #8]
 246 007e 0638     		subs	r0, r0, #6
 247 0080 FFF7FEFF 		bl	HAL_FLASH_EndOfOperationCallback
 248              	.L31:
 249 0084 324B     		ldr	r3, .L40+4
 250 0086 4FF0FF32 		mov	r2, #-1
 251 008a 9A60     		str	r2, [r3, #8]
 252 008c 0022     		movs	r2, #0
 253 008e 1A70     		strb	r2, [r3]
 254              	.L25:
 255 0090 2F4B     		ldr	r3, .L40+4
 256 0092 1B78     		ldrb	r3, [r3]	@ zero_extendqisi2
 257 0094 5BB9     		cbnz	r3, .L22
 258 0096 2D4B     		ldr	r3, .L40
 259 0098 1A69     		ldr	r2, [r3, #16]
 260 009a 22F00702 		bic	r2, r2, #7
 261 009e 1A61     		str	r2, [r3, #16]
 262 00a0 1A69     		ldr	r2, [r3, #16]
 263 00a2 22F4A052 		bic	r2, r2, #5120
 264 00a6 1A61     		str	r2, [r3, #16]
 265 00a8 294B     		ldr	r3, .L40+4
 266 00aa 0022     		movs	r2, #0
 267 00ac 1A76     		strb	r2, [r3, #24]
 268              	.L22:
 269 00ae F8BD     		pop	{r3, r4, r5, r6, r7, pc}
 270              	.L35:
 271 00b0 274B     		ldr	r3, .L40+4
 272 00b2 5A68     		ldr	r2, [r3, #4]
 273 00b4 013A     		subs	r2, r2, #1
 274 00b6 5A60     		str	r2, [r3, #4]
 275 00b8 5B68     		ldr	r3, [r3, #4]
 276 00ba 7BB1     		cbz	r3, .L27
 277 00bc 244C     		ldr	r4, .L40+4
 278 00be A068     		ldr	r0, [r4, #8]
 279 00c0 FFF7FEFF 		bl	HAL_FLASH_EndOfOperationCallback
 280 00c4 A068     		ldr	r0, [r4, #8]
 281 00c6 00F50060 		add	r0, r0, #2048
 282 00ca A060     		str	r0, [r4, #8]
 283 00cc 1F4A     		ldr	r2, .L40
 284 00ce 1369     		ldr	r3, [r2, #16]
 285 00d0 23F00203 		bic	r3, r3, #2
 286 00d4 1361     		str	r3, [r2, #16]
 287 00d6 FFF7FEFF 		bl	FLASH_PageErase
 288 00da D9E7     		b	.L25
 289              	.L27:
 290 00dc 1C4B     		ldr	r3, .L40+4
 291 00de 4FF0FF30 		mov	r0, #-1
 292 00e2 9860     		str	r0, [r3, #8]
 293 00e4 0022     		movs	r2, #0
 294 00e6 1A70     		strb	r2, [r3]
 295 00e8 FFF7FEFF 		bl	HAL_FLASH_EndOfOperationCallback
 296 00ec D0E7     		b	.L25
ARM GAS  /tmp/ccCSJeZJ.s 			page 6


 297              	.L36:
 298 00ee 174A     		ldr	r2, .L40
 299 00f0 1369     		ldr	r3, [r2, #16]
 300 00f2 23F00403 		bic	r3, r3, #4
 301 00f6 1361     		str	r3, [r2, #16]
 302 00f8 0020     		movs	r0, #0
 303 00fa FFF7FEFF 		bl	HAL_FLASH_EndOfOperationCallback
 304 00fe 144B     		ldr	r3, .L40+4
 305 0100 0022     		movs	r2, #0
 306 0102 1A70     		strb	r2, [r3]
 307 0104 C4E7     		b	.L25
 308              	.L37:
 309 0106 124B     		ldr	r3, .L40+4
 310 0108 9A68     		ldr	r2, [r3, #8]
 311 010a 0232     		adds	r2, r2, #2
 312 010c 9A60     		str	r2, [r3, #8]
 313 010e 9868     		ldr	r0, [r3, #8]
 314 0110 D3E90467 		ldrd	r6, [r3, #16]
 315 0114 340C     		lsrs	r4, r6, #16
 316 0116 44EA0744 		orr	r4, r4, r7, lsl #16
 317 011a 3D0C     		lsrs	r5, r7, #16
 318 011c C3E90445 		strd	r4, [r3, #16]
 319 0120 0A49     		ldr	r1, .L40
 320 0122 0A69     		ldr	r2, [r1, #16]
 321 0124 22F00102 		bic	r2, r2, #1
 322 0128 0A61     		str	r2, [r1, #16]
 323 012a D3E90423 		ldrd	r2, [r3, #16]
 324 012e 91B2     		uxth	r1, r2
 325 0130 FFF7FEFF 		bl	FLASH_Program_HalfWord
 326 0134 ACE7     		b	.L25
 327              	.L38:
 328 0136 064B     		ldr	r3, .L40+4
 329 0138 9868     		ldr	r0, [r3, #8]
 330 013a FFF7FEFF 		bl	HAL_FLASH_EndOfOperationCallback
 331 013e A1E7     		b	.L31
 332              	.L39:
 333 0140 034B     		ldr	r3, .L40+4
 334 0142 9868     		ldr	r0, [r3, #8]
 335 0144 0238     		subs	r0, r0, #2
 336 0146 FFF7FEFF 		bl	HAL_FLASH_EndOfOperationCallback
 337 014a 9BE7     		b	.L31
 338              	.L41:
 339              		.align	2
 340              	.L40:
 341 014c 00200240 		.word	1073881088
 342 0150 00000000 		.word	pFlash
 344              		.section	.text.HAL_FLASH_Unlock,"ax",%progbits
 345              		.align	1
 346              		.global	HAL_FLASH_Unlock
 347              		.syntax unified
 348              		.thumb
 349              		.thumb_func
 350              		.fpu fpv4-sp-d16
 352              	HAL_FLASH_Unlock:
 353              		@ args = 0, pretend = 0, frame = 0
 354              		@ frame_needed = 0, uses_anonymous_args = 0
 355              		@ link register save eliminated.
ARM GAS  /tmp/ccCSJeZJ.s 			page 7


 356 0000 0A4B     		ldr	r3, .L46
 357 0002 1B69     		ldr	r3, [r3, #16]
 358 0004 13F0800F 		tst	r3, #128
 359 0008 0BD0     		beq	.L44
 360 000a 084B     		ldr	r3, .L46
 361 000c 084A     		ldr	r2, .L46+4
 362 000e 5A60     		str	r2, [r3, #4]
 363 0010 02F18832 		add	r2, r2, #-2004318072
 364 0014 5A60     		str	r2, [r3, #4]
 365 0016 1B69     		ldr	r3, [r3, #16]
 366 0018 13F0800F 		tst	r3, #128
 367 001c 03D1     		bne	.L45
 368 001e 0020     		movs	r0, #0
 369 0020 7047     		bx	lr
 370              	.L44:
 371 0022 0020     		movs	r0, #0
 372 0024 7047     		bx	lr
 373              	.L45:
 374 0026 0120     		movs	r0, #1
 375 0028 7047     		bx	lr
 376              	.L47:
 377 002a 00BF     		.align	2
 378              	.L46:
 379 002c 00200240 		.word	1073881088
 380 0030 23016745 		.word	1164378403
 382              		.section	.text.HAL_FLASH_Lock,"ax",%progbits
 383              		.align	1
 384              		.global	HAL_FLASH_Lock
 385              		.syntax unified
 386              		.thumb
 387              		.thumb_func
 388              		.fpu fpv4-sp-d16
 390              	HAL_FLASH_Lock:
 391              		@ args = 0, pretend = 0, frame = 0
 392              		@ frame_needed = 0, uses_anonymous_args = 0
 393              		@ link register save eliminated.
 394 0000 034A     		ldr	r2, .L49
 395 0002 1369     		ldr	r3, [r2, #16]
 396 0004 43F08003 		orr	r3, r3, #128
 397 0008 1361     		str	r3, [r2, #16]
 398 000a 0020     		movs	r0, #0
 399 000c 7047     		bx	lr
 400              	.L50:
 401 000e 00BF     		.align	2
 402              	.L49:
 403 0010 00200240 		.word	1073881088
 405              		.section	.text.HAL_FLASH_OB_Unlock,"ax",%progbits
 406              		.align	1
 407              		.global	HAL_FLASH_OB_Unlock
 408              		.syntax unified
 409              		.thumb
 410              		.thumb_func
 411              		.fpu fpv4-sp-d16
 413              	HAL_FLASH_OB_Unlock:
 414              		@ args = 0, pretend = 0, frame = 0
 415              		@ frame_needed = 0, uses_anonymous_args = 0
 416              		@ link register save eliminated.
ARM GAS  /tmp/ccCSJeZJ.s 			page 8


 417 0000 074B     		ldr	r3, .L54
 418 0002 1B69     		ldr	r3, [r3, #16]
 419 0004 13F4007F 		tst	r3, #512
 420 0008 07D1     		bne	.L53
 421 000a 054B     		ldr	r3, .L54
 422 000c 054A     		ldr	r2, .L54+4
 423 000e 9A60     		str	r2, [r3, #8]
 424 0010 02F18832 		add	r2, r2, #-2004318072
 425 0014 9A60     		str	r2, [r3, #8]
 426 0016 0020     		movs	r0, #0
 427 0018 7047     		bx	lr
 428              	.L53:
 429 001a 0120     		movs	r0, #1
 430 001c 7047     		bx	lr
 431              	.L55:
 432 001e 00BF     		.align	2
 433              	.L54:
 434 0020 00200240 		.word	1073881088
 435 0024 23016745 		.word	1164378403
 437              		.section	.text.HAL_FLASH_OB_Lock,"ax",%progbits
 438              		.align	1
 439              		.global	HAL_FLASH_OB_Lock
 440              		.syntax unified
 441              		.thumb
 442              		.thumb_func
 443              		.fpu fpv4-sp-d16
 445              	HAL_FLASH_OB_Lock:
 446              		@ args = 0, pretend = 0, frame = 0
 447              		@ frame_needed = 0, uses_anonymous_args = 0
 448              		@ link register save eliminated.
 449 0000 034A     		ldr	r2, .L57
 450 0002 1369     		ldr	r3, [r2, #16]
 451 0004 23F40073 		bic	r3, r3, #512
 452 0008 1361     		str	r3, [r2, #16]
 453 000a 0020     		movs	r0, #0
 454 000c 7047     		bx	lr
 455              	.L58:
 456 000e 00BF     		.align	2
 457              	.L57:
 458 0010 00200240 		.word	1073881088
 460              		.section	.text.HAL_FLASH_GetError,"ax",%progbits
 461              		.align	1
 462              		.global	HAL_FLASH_GetError
 463              		.syntax unified
 464              		.thumb
 465              		.thumb_func
 466              		.fpu fpv4-sp-d16
 468              	HAL_FLASH_GetError:
 469              		@ args = 0, pretend = 0, frame = 0
 470              		@ frame_needed = 0, uses_anonymous_args = 0
 471              		@ link register save eliminated.
 472 0000 014B     		ldr	r3, .L60
 473 0002 D869     		ldr	r0, [r3, #28]
 474 0004 7047     		bx	lr
 475              	.L61:
 476 0006 00BF     		.align	2
 477              	.L60:
ARM GAS  /tmp/ccCSJeZJ.s 			page 9


 478 0008 00000000 		.word	pFlash
 480              		.section	.text.FLASH_WaitForLastOperation,"ax",%progbits
 481              		.align	1
 482              		.global	FLASH_WaitForLastOperation
 483              		.syntax unified
 484              		.thumb
 485              		.thumb_func
 486              		.fpu fpv4-sp-d16
 488              	FLASH_WaitForLastOperation:
 489              		@ args = 0, pretend = 0, frame = 0
 490              		@ frame_needed = 0, uses_anonymous_args = 0
 491 0000 38B5     		push	{r3, r4, r5, lr}
 492 0002 0446     		mov	r4, r0
 493 0004 FFF7FEFF 		bl	HAL_GetTick
 494 0008 0546     		mov	r5, r0
 495              	.L64:
 496 000a 144B     		ldr	r3, .L73
 497 000c DB68     		ldr	r3, [r3, #12]
 498 000e 13F0010F 		tst	r3, #1
 499 0012 0AD0     		beq	.L72
 500 0014 B4F1FF3F 		cmp	r4, #-1
 501 0018 F7D0     		beq	.L64
 502 001a 24B1     		cbz	r4, .L65
 503 001c FFF7FEFF 		bl	HAL_GetTick
 504 0020 401B     		subs	r0, r0, r5
 505 0022 A042     		cmp	r0, r4
 506 0024 F1D9     		bls	.L64
 507              	.L65:
 508 0026 0320     		movs	r0, #3
 509 0028 12E0     		b	.L66
 510              	.L72:
 511 002a 0C4B     		ldr	r3, .L73
 512 002c DB68     		ldr	r3, [r3, #12]
 513 002e 13F0200F 		tst	r3, #32
 514 0032 02D0     		beq	.L68
 515 0034 094B     		ldr	r3, .L73
 516 0036 2022     		movs	r2, #32
 517 0038 DA60     		str	r2, [r3, #12]
 518              	.L68:
 519 003a 084B     		ldr	r3, .L73
 520 003c DB68     		ldr	r3, [r3, #12]
 521 003e 13F0100F 		tst	r3, #16
 522 0042 06D1     		bne	.L69
 523 0044 054B     		ldr	r3, .L73
 524 0046 DB68     		ldr	r3, [r3, #12]
 525 0048 13F0040F 		tst	r3, #4
 526 004c 01D1     		bne	.L69
 527 004e 0020     		movs	r0, #0
 528              	.L66:
 529 0050 38BD     		pop	{r3, r4, r5, pc}
 530              	.L69:
 531 0052 FFF7FEFF 		bl	FLASH_SetErrorCode
 532 0056 0120     		movs	r0, #1
 533 0058 FAE7     		b	.L66
 534              	.L74:
 535 005a 00BF     		.align	2
 536              	.L73:
ARM GAS  /tmp/ccCSJeZJ.s 			page 10


 537 005c 00200240 		.word	1073881088
 539              		.section	.text.HAL_FLASH_Program,"ax",%progbits
 540              		.align	1
 541              		.global	HAL_FLASH_Program
 542              		.syntax unified
 543              		.thumb
 544              		.thumb_func
 545              		.fpu fpv4-sp-d16
 547              	HAL_FLASH_Program:
 548              		@ args = 0, pretend = 0, frame = 0
 549              		@ frame_needed = 0, uses_anonymous_args = 0
 550 0000 2DE9F843 		push	{r3, r4, r5, r6, r7, r8, r9, lr}
 551 0004 1E46     		mov	r6, r3
 552 0006 234B     		ldr	r3, .L86
 553 0008 1B7E     		ldrb	r3, [r3, #24]	@ zero_extendqisi2
 554 000a 012B     		cmp	r3, #1
 555 000c 40D0     		beq	.L81
 556 000e 0446     		mov	r4, r0
 557 0010 0F46     		mov	r7, r1
 558 0012 9046     		mov	r8, r2
 559 0014 1F4B     		ldr	r3, .L86
 560 0016 0122     		movs	r2, #1
 561 0018 1A76     		strb	r2, [r3, #24]
 562 001a 4CF25030 		movw	r0, #50000
 563 001e FFF7FEFF 		bl	FLASH_WaitForLastOperation
 564 0022 0346     		mov	r3, r0
 565 0024 70BB     		cbnz	r0, .L77
 566 0026 012C     		cmp	r4, #1
 567 0028 29D0     		beq	.L82
 568 002a 022C     		cmp	r4, #2
 569 002c 24D0     		beq	.L85
 570 002e 4FF00409 		mov	r9, #4
 571              	.L78:
 572 0032 1C46     		mov	r4, r3
 573              	.L79:
 574 0034 4C45     		cmp	r4, r9
 575 0036 25D2     		bcs	.L77
 576 0038 2101     		lsls	r1, r4, #4
 577 003a C1F12002 		rsb	r2, r1, #32
 578 003e A1F12003 		sub	r3, r1, #32
 579 0042 28FA01F1 		lsr	r1, r8, r1
 580 0046 06FA02F2 		lsl	r2, r6, r2
 581 004a 1143     		orrs	r1, r1, r2
 582 004c 26FA03F3 		lsr	r3, r6, r3
 583 0050 1943     		orrs	r1, r1, r3
 584 0052 89B2     		uxth	r1, r1
 585 0054 07EB4400 		add	r0, r7, r4, lsl #1
 586 0058 FFF7FEFF 		bl	FLASH_Program_HalfWord
 587 005c 4CF25030 		movw	r0, #50000
 588 0060 FFF7FEFF 		bl	FLASH_WaitForLastOperation
 589 0064 0C4B     		ldr	r3, .L86+4
 590 0066 1D69     		ldr	r5, [r3, #16]
 591 0068 25F00105 		bic	r5, r5, #1
 592 006c 1D61     		str	r5, [r3, #16]
 593 006e 0346     		mov	r3, r0
 594 0070 40B9     		cbnz	r0, .L77
 595 0072 0134     		adds	r4, r4, #1
ARM GAS  /tmp/ccCSJeZJ.s 			page 11


 596 0074 E4B2     		uxtb	r4, r4
 597 0076 DDE7     		b	.L79
 598              	.L85:
 599 0078 4FF00209 		mov	r9, #2
 600 007c D9E7     		b	.L78
 601              	.L82:
 602 007e 4FF00109 		mov	r9, #1
 603 0082 D6E7     		b	.L78
 604              	.L77:
 605 0084 034A     		ldr	r2, .L86
 606 0086 0021     		movs	r1, #0
 607 0088 1176     		strb	r1, [r2, #24]
 608              	.L76:
 609 008a 1846     		mov	r0, r3
 610 008c BDE8F883 		pop	{r3, r4, r5, r6, r7, r8, r9, pc}
 611              	.L81:
 612 0090 0223     		movs	r3, #2
 613 0092 FAE7     		b	.L76
 614              	.L87:
 615              		.align	2
 616              	.L86:
 617 0094 00000000 		.word	pFlash
 618 0098 00200240 		.word	1073881088
 620              		.section	.text.HAL_FLASH_OB_Launch,"ax",%progbits
 621              		.align	1
 622              		.global	HAL_FLASH_OB_Launch
 623              		.syntax unified
 624              		.thumb
 625              		.thumb_func
 626              		.fpu fpv4-sp-d16
 628              	HAL_FLASH_OB_Launch:
 629              		@ args = 0, pretend = 0, frame = 0
 630              		@ frame_needed = 0, uses_anonymous_args = 0
 631 0000 08B5     		push	{r3, lr}
 632 0002 054A     		ldr	r2, .L90
 633 0004 1369     		ldr	r3, [r2, #16]
 634 0006 43F40053 		orr	r3, r3, #8192
 635 000a 1361     		str	r3, [r2, #16]
 636 000c 4CF25030 		movw	r0, #50000
 637 0010 FFF7FEFF 		bl	FLASH_WaitForLastOperation
 638 0014 08BD     		pop	{r3, pc}
 639              	.L91:
 640 0016 00BF     		.align	2
 641              	.L90:
 642 0018 00200240 		.word	1073881088
 644              		.comm	pFlash,32,8
 645              		.ident	"GCC: (15:9-2019-q4-0ubuntu1) 9.2.1 20191025 (release) [ARM/arm-9-branch revision 277599]"
ARM GAS  /tmp/ccCSJeZJ.s 			page 12

