ARM GAS  /tmp/ccnOafIR.s 			page 1


   1              		.cpu cortex-m4
   2              		.eabi_attribute 27, 1
   3              		.eabi_attribute 28, 1
   4              		.eabi_attribute 20, 1
   5              		.eabi_attribute 21, 1
   6              		.eabi_attribute 23, 3
   7              		.eabi_attribute 24, 1
   8              		.eabi_attribute 25, 1
   9              		.eabi_attribute 26, 1
  10              		.eabi_attribute 30, 1
  11              		.eabi_attribute 34, 1
  12              		.eabi_attribute 18, 4
  13              		.file	"stm32f3xx_hal_cortex.c"
  14              		.text
  15              		.section	.text.HAL_NVIC_SetPriorityGrouping,"ax",%progbits
  16              		.align	1
  17              		.global	HAL_NVIC_SetPriorityGrouping
  18              		.arch armv7e-m
  19              		.syntax unified
  20              		.thumb
  21              		.thumb_func
  22              		.fpu fpv4-sp-d16
  24              	HAL_NVIC_SetPriorityGrouping:
  25              		@ args = 0, pretend = 0, frame = 0
  26              		@ frame_needed = 0, uses_anonymous_args = 0
  27              		@ link register save eliminated.
  28 0000 074A     		ldr	r2, .L2
  29 0002 D368     		ldr	r3, [r2, #12]
  30 0004 23F4E063 		bic	r3, r3, #1792
  31 0008 1B04     		lsls	r3, r3, #16
  32 000a 1B0C     		lsrs	r3, r3, #16
  33 000c 0002     		lsls	r0, r0, #8
  34 000e 00F4E060 		and	r0, r0, #1792
  35 0012 0343     		orrs	r3, r3, r0
  36 0014 43F0BF63 		orr	r3, r3, #100139008
  37 0018 43F40033 		orr	r3, r3, #131072
  38 001c D360     		str	r3, [r2, #12]
  39 001e 7047     		bx	lr
  40              	.L3:
  41              		.align	2
  42              	.L2:
  43 0020 00ED00E0 		.word	-536810240
  45              		.section	.text.HAL_NVIC_SetPriority,"ax",%progbits
  46              		.align	1
  47              		.global	HAL_NVIC_SetPriority
  48              		.syntax unified
  49              		.thumb
  50              		.thumb_func
  51              		.fpu fpv4-sp-d16
  53              	HAL_NVIC_SetPriority:
  54              		@ args = 0, pretend = 0, frame = 0
  55              		@ frame_needed = 0, uses_anonymous_args = 0
  56              		@ link register save eliminated.
  57 0000 30B4     		push	{r4, r5}
  58 0002 174B     		ldr	r3, .L10
  59 0004 DB68     		ldr	r3, [r3, #12]
  60 0006 C3F30223 		ubfx	r3, r3, #8, #3
ARM GAS  /tmp/ccnOafIR.s 			page 2


  61 000a C3F10704 		rsb	r4, r3, #7
  62 000e 042C     		cmp	r4, #4
  63 0010 28BF     		it	cs
  64 0012 0424     		movcs	r4, #4
  65 0014 1D1D     		adds	r5, r3, #4
  66 0016 062D     		cmp	r5, #6
  67 0018 18D9     		bls	.L8
  68 001a 033B     		subs	r3, r3, #3
  69              	.L5:
  70 001c 4FF0FF35 		mov	r5, #-1
  71 0020 05FA04F4 		lsl	r4, r5, r4
  72 0024 21EA0401 		bic	r1, r1, r4
  73 0028 9940     		lsls	r1, r1, r3
  74 002a 05FA03F3 		lsl	r3, r5, r3
  75 002e 22EA0303 		bic	r3, r2, r3
  76 0032 1943     		orrs	r1, r1, r3
  77 0034 0028     		cmp	r0, #0
  78 0036 0BDB     		blt	.L6
  79 0038 0901     		lsls	r1, r1, #4
  80 003a C9B2     		uxtb	r1, r1
  81 003c 00F16040 		add	r0, r0, #-536870912
  82 0040 00F56140 		add	r0, r0, #57600
  83 0044 80F80013 		strb	r1, [r0, #768]
  84              	.L4:
  85 0048 30BC     		pop	{r4, r5}
  86 004a 7047     		bx	lr
  87              	.L8:
  88 004c 0023     		movs	r3, #0
  89 004e E5E7     		b	.L5
  90              	.L6:
  91 0050 00F00F00 		and	r0, r0, #15
  92 0054 0901     		lsls	r1, r1, #4
  93 0056 C9B2     		uxtb	r1, r1
  94 0058 024B     		ldr	r3, .L10+4
  95 005a 1954     		strb	r1, [r3, r0]
  96 005c F4E7     		b	.L4
  97              	.L11:
  98 005e 00BF     		.align	2
  99              	.L10:
 100 0060 00ED00E0 		.word	-536810240
 101 0064 14ED00E0 		.word	-536810220
 103              		.section	.text.HAL_NVIC_EnableIRQ,"ax",%progbits
 104              		.align	1
 105              		.global	HAL_NVIC_EnableIRQ
 106              		.syntax unified
 107              		.thumb
 108              		.thumb_func
 109              		.fpu fpv4-sp-d16
 111              	HAL_NVIC_EnableIRQ:
 112              		@ args = 0, pretend = 0, frame = 0
 113              		@ frame_needed = 0, uses_anonymous_args = 0
 114              		@ link register save eliminated.
 115 0000 0028     		cmp	r0, #0
 116 0002 07DB     		blt	.L12
 117 0004 00F01F02 		and	r2, r0, #31
 118 0008 4009     		lsrs	r0, r0, #5
 119 000a 0123     		movs	r3, #1
ARM GAS  /tmp/ccnOafIR.s 			page 3


 120 000c 9340     		lsls	r3, r3, r2
 121 000e 024A     		ldr	r2, .L14
 122 0010 42F82030 		str	r3, [r2, r0, lsl #2]
 123              	.L12:
 124 0014 7047     		bx	lr
 125              	.L15:
 126 0016 00BF     		.align	2
 127              	.L14:
 128 0018 00E100E0 		.word	-536813312
 130              		.section	.text.HAL_NVIC_DisableIRQ,"ax",%progbits
 131              		.align	1
 132              		.global	HAL_NVIC_DisableIRQ
 133              		.syntax unified
 134              		.thumb
 135              		.thumb_func
 136              		.fpu fpv4-sp-d16
 138              	HAL_NVIC_DisableIRQ:
 139              		@ args = 0, pretend = 0, frame = 0
 140              		@ frame_needed = 0, uses_anonymous_args = 0
 141              		@ link register save eliminated.
 142 0000 0028     		cmp	r0, #0
 143 0002 0CDB     		blt	.L16
 144 0004 00F01F02 		and	r2, r0, #31
 145 0008 4009     		lsrs	r0, r0, #5
 146 000a 0123     		movs	r3, #1
 147 000c 9340     		lsls	r3, r3, r2
 148 000e 2030     		adds	r0, r0, #32
 149 0010 034A     		ldr	r2, .L18
 150 0012 42F82030 		str	r3, [r2, r0, lsl #2]
 151              		.syntax unified
 152              	@ 879 "../Drivers/CMSIS/Include/cmsis_gcc.h" 1
 153 0016 BFF34F8F 		dsb 0xF
 154              	@ 0 "" 2
 155              	@ 868 "../Drivers/CMSIS/Include/cmsis_gcc.h" 1
 156 001a BFF36F8F 		isb 0xF
 157              	@ 0 "" 2
 158              		.thumb
 159              		.syntax unified
 160              	.L16:
 161 001e 7047     		bx	lr
 162              	.L19:
 163              		.align	2
 164              	.L18:
 165 0020 00E100E0 		.word	-536813312
 167              		.section	.text.HAL_NVIC_SystemReset,"ax",%progbits
 168              		.align	1
 169              		.global	HAL_NVIC_SystemReset
 170              		.syntax unified
 171              		.thumb
 172              		.thumb_func
 173              		.fpu fpv4-sp-d16
 175              	HAL_NVIC_SystemReset:
 176              		@ Volatile: function does not return.
 177              		@ args = 0, pretend = 0, frame = 0
 178              		@ frame_needed = 0, uses_anonymous_args = 0
 179              		@ link register save eliminated.
 180              		.syntax unified
ARM GAS  /tmp/ccnOafIR.s 			page 4


 181              	@ 879 "../Drivers/CMSIS/Include/cmsis_gcc.h" 1
 182 0000 BFF34F8F 		dsb 0xF
 183              	@ 0 "" 2
 184              		.thumb
 185              		.syntax unified
 186 0004 0549     		ldr	r1, .L22
 187 0006 CA68     		ldr	r2, [r1, #12]
 188 0008 02F4E062 		and	r2, r2, #1792
 189 000c 044B     		ldr	r3, .L22+4
 190 000e 1343     		orrs	r3, r3, r2
 191 0010 CB60     		str	r3, [r1, #12]
 192              		.syntax unified
 193              	@ 879 "../Drivers/CMSIS/Include/cmsis_gcc.h" 1
 194 0012 BFF34F8F 		dsb 0xF
 195              	@ 0 "" 2
 196              		.thumb
 197              		.syntax unified
 198              	.L21:
 199              		.syntax unified
 200              	@ 1950 "../Drivers/CMSIS/Include/core_cm4.h" 1
 201 0016 00BF     		nop
 202              	@ 0 "" 2
 203              		.thumb
 204              		.syntax unified
 205 0018 FDE7     		b	.L21
 206              	.L23:
 207 001a 00BF     		.align	2
 208              	.L22:
 209 001c 00ED00E0 		.word	-536810240
 210 0020 0400FA05 		.word	100270084
 212              		.section	.text.HAL_SYSTICK_Config,"ax",%progbits
 213              		.align	1
 214              		.global	HAL_SYSTICK_Config
 215              		.syntax unified
 216              		.thumb
 217              		.thumb_func
 218              		.fpu fpv4-sp-d16
 220              	HAL_SYSTICK_Config:
 221              		@ args = 0, pretend = 0, frame = 0
 222              		@ frame_needed = 0, uses_anonymous_args = 0
 223              		@ link register save eliminated.
 224 0000 0138     		subs	r0, r0, #1
 225 0002 B0F1807F 		cmp	r0, #16777216
 226 0006 0AD2     		bcs	.L26
 227 0008 064B     		ldr	r3, .L27
 228 000a 5860     		str	r0, [r3, #4]
 229 000c 064A     		ldr	r2, .L27+4
 230 000e F021     		movs	r1, #240
 231 0010 82F82310 		strb	r1, [r2, #35]
 232 0014 0020     		movs	r0, #0
 233 0016 9860     		str	r0, [r3, #8]
 234 0018 0722     		movs	r2, #7
 235 001a 1A60     		str	r2, [r3]
 236 001c 7047     		bx	lr
 237              	.L26:
 238 001e 0120     		movs	r0, #1
 239 0020 7047     		bx	lr
ARM GAS  /tmp/ccnOafIR.s 			page 5


 240              	.L28:
 241 0022 00BF     		.align	2
 242              	.L27:
 243 0024 10E000E0 		.word	-536813552
 244 0028 00ED00E0 		.word	-536810240
 246              		.section	.text.HAL_MPU_Disable,"ax",%progbits
 247              		.align	1
 248              		.global	HAL_MPU_Disable
 249              		.syntax unified
 250              		.thumb
 251              		.thumb_func
 252              		.fpu fpv4-sp-d16
 254              	HAL_MPU_Disable:
 255              		@ args = 0, pretend = 0, frame = 0
 256              		@ frame_needed = 0, uses_anonymous_args = 0
 257              		@ link register save eliminated.
 258 0000 044A     		ldr	r2, .L30
 259 0002 536A     		ldr	r3, [r2, #36]
 260 0004 23F48033 		bic	r3, r3, #65536
 261 0008 5362     		str	r3, [r2, #36]
 262 000a 034B     		ldr	r3, .L30+4
 263 000c 0022     		movs	r2, #0
 264 000e 5A60     		str	r2, [r3, #4]
 265 0010 7047     		bx	lr
 266              	.L31:
 267 0012 00BF     		.align	2
 268              	.L30:
 269 0014 00ED00E0 		.word	-536810240
 270 0018 90ED00E0 		.word	-536810096
 272              		.section	.text.HAL_MPU_Enable,"ax",%progbits
 273              		.align	1
 274              		.global	HAL_MPU_Enable
 275              		.syntax unified
 276              		.thumb
 277              		.thumb_func
 278              		.fpu fpv4-sp-d16
 280              	HAL_MPU_Enable:
 281              		@ args = 0, pretend = 0, frame = 0
 282              		@ frame_needed = 0, uses_anonymous_args = 0
 283              		@ link register save eliminated.
 284 0000 40F00100 		orr	r0, r0, #1
 285 0004 034B     		ldr	r3, .L33
 286 0006 5860     		str	r0, [r3, #4]
 287 0008 034A     		ldr	r2, .L33+4
 288 000a 536A     		ldr	r3, [r2, #36]
 289 000c 43F48033 		orr	r3, r3, #65536
 290 0010 5362     		str	r3, [r2, #36]
 291 0012 7047     		bx	lr
 292              	.L34:
 293              		.align	2
 294              	.L33:
 295 0014 90ED00E0 		.word	-536810096
 296 0018 00ED00E0 		.word	-536810240
 298              		.section	.text.HAL_MPU_ConfigRegion,"ax",%progbits
 299              		.align	1
 300              		.global	HAL_MPU_ConfigRegion
 301              		.syntax unified
ARM GAS  /tmp/ccnOafIR.s 			page 6


 302              		.thumb
 303              		.thumb_func
 304              		.fpu fpv4-sp-d16
 306              	HAL_MPU_ConfigRegion:
 307              		@ args = 0, pretend = 0, frame = 0
 308              		@ frame_needed = 0, uses_anonymous_args = 0
 309              		@ link register save eliminated.
 310 0000 4278     		ldrb	r2, [r0, #1]	@ zero_extendqisi2
 311 0002 134B     		ldr	r3, .L38
 312 0004 9A60     		str	r2, [r3, #8]
 313 0006 0378     		ldrb	r3, [r0]	@ zero_extendqisi2
 314 0008 EBB1     		cbz	r3, .L36
 315 000a 4368     		ldr	r3, [r0, #4]
 316 000c 104A     		ldr	r2, .L38
 317 000e D360     		str	r3, [r2, #12]
 318 0010 017B     		ldrb	r1, [r0, #12]	@ zero_extendqisi2
 319 0012 C37A     		ldrb	r3, [r0, #11]	@ zero_extendqisi2
 320 0014 1B06     		lsls	r3, r3, #24
 321 0016 43EA0173 		orr	r3, r3, r1, lsl #28
 322 001a 817A     		ldrb	r1, [r0, #10]	@ zero_extendqisi2
 323 001c 43EAC143 		orr	r3, r3, r1, lsl #19
 324 0020 417B     		ldrb	r1, [r0, #13]	@ zero_extendqisi2
 325 0022 43EA8143 		orr	r3, r3, r1, lsl #18
 326 0026 817B     		ldrb	r1, [r0, #14]	@ zero_extendqisi2
 327 0028 43EA4143 		orr	r3, r3, r1, lsl #17
 328 002c C17B     		ldrb	r1, [r0, #15]	@ zero_extendqisi2
 329 002e 43EA0143 		orr	r3, r3, r1, lsl #16
 330 0032 417A     		ldrb	r1, [r0, #9]	@ zero_extendqisi2
 331 0034 43EA0123 		orr	r3, r3, r1, lsl #8
 332 0038 017A     		ldrb	r1, [r0, #8]	@ zero_extendqisi2
 333 003a 43EA4103 		orr	r3, r3, r1, lsl #1
 334 003e 0178     		ldrb	r1, [r0]	@ zero_extendqisi2
 335 0040 0B43     		orrs	r3, r3, r1
 336 0042 1361     		str	r3, [r2, #16]
 337 0044 7047     		bx	lr
 338              	.L36:
 339 0046 024B     		ldr	r3, .L38
 340 0048 0022     		movs	r2, #0
 341 004a DA60     		str	r2, [r3, #12]
 342 004c 1A61     		str	r2, [r3, #16]
 343 004e 7047     		bx	lr
 344              	.L39:
 345              		.align	2
 346              	.L38:
 347 0050 90ED00E0 		.word	-536810096
 349              		.section	.text.HAL_NVIC_GetPriorityGrouping,"ax",%progbits
 350              		.align	1
 351              		.global	HAL_NVIC_GetPriorityGrouping
 352              		.syntax unified
 353              		.thumb
 354              		.thumb_func
 355              		.fpu fpv4-sp-d16
 357              	HAL_NVIC_GetPriorityGrouping:
 358              		@ args = 0, pretend = 0, frame = 0
 359              		@ frame_needed = 0, uses_anonymous_args = 0
 360              		@ link register save eliminated.
 361 0000 024B     		ldr	r3, .L41
ARM GAS  /tmp/ccnOafIR.s 			page 7


 362 0002 D868     		ldr	r0, [r3, #12]
 363 0004 C0F30220 		ubfx	r0, r0, #8, #3
 364 0008 7047     		bx	lr
 365              	.L42:
 366 000a 00BF     		.align	2
 367              	.L41:
 368 000c 00ED00E0 		.word	-536810240
 370              		.section	.text.HAL_NVIC_GetPriority,"ax",%progbits
 371              		.align	1
 372              		.global	HAL_NVIC_GetPriority
 373              		.syntax unified
 374              		.thumb
 375              		.thumb_func
 376              		.fpu fpv4-sp-d16
 378              	HAL_NVIC_GetPriority:
 379              		@ args = 0, pretend = 0, frame = 0
 380              		@ frame_needed = 0, uses_anonymous_args = 0
 381              		@ link register save eliminated.
 382 0000 70B4     		push	{r4, r5, r6}
 383 0002 0028     		cmp	r0, #0
 384 0004 21DB     		blt	.L44
 385 0006 00F16040 		add	r0, r0, #-536870912
 386 000a 00F56140 		add	r0, r0, #57600
 387 000e 90F80003 		ldrb	r0, [r0, #768]	@ zero_extendqisi2
 388 0012 0009     		lsrs	r0, r0, #4
 389              	.L45:
 390 0014 01F00701 		and	r1, r1, #7
 391 0018 C1F10704 		rsb	r4, r1, #7
 392 001c 042C     		cmp	r4, #4
 393 001e 28BF     		it	cs
 394 0020 0424     		movcs	r4, #4
 395 0022 0D1D     		adds	r5, r1, #4
 396 0024 062D     		cmp	r5, #6
 397 0026 16D9     		bls	.L47
 398 0028 0339     		subs	r1, r1, #3
 399              	.L46:
 400 002a 20FA01F6 		lsr	r6, r0, r1
 401 002e 4FF0FF35 		mov	r5, #-1
 402 0032 05FA04F4 		lsl	r4, r5, r4
 403 0036 26EA0404 		bic	r4, r6, r4
 404 003a 1460     		str	r4, [r2]
 405 003c 05FA01F1 		lsl	r1, r5, r1
 406 0040 20EA0100 		bic	r0, r0, r1
 407 0044 1860     		str	r0, [r3]
 408 0046 70BC     		pop	{r4, r5, r6}
 409 0048 7047     		bx	lr
 410              	.L44:
 411 004a 00F00F00 		and	r0, r0, #15
 412 004e 034C     		ldr	r4, .L49
 413 0050 205C     		ldrb	r0, [r4, r0]	@ zero_extendqisi2
 414 0052 0009     		lsrs	r0, r0, #4
 415 0054 DEE7     		b	.L45
 416              	.L47:
 417 0056 0021     		movs	r1, #0
 418 0058 E7E7     		b	.L46
 419              	.L50:
 420 005a 00BF     		.align	2
ARM GAS  /tmp/ccnOafIR.s 			page 8


 421              	.L49:
 422 005c 14ED00E0 		.word	-536810220
 424              		.section	.text.HAL_NVIC_SetPendingIRQ,"ax",%progbits
 425              		.align	1
 426              		.global	HAL_NVIC_SetPendingIRQ
 427              		.syntax unified
 428              		.thumb
 429              		.thumb_func
 430              		.fpu fpv4-sp-d16
 432              	HAL_NVIC_SetPendingIRQ:
 433              		@ args = 0, pretend = 0, frame = 0
 434              		@ frame_needed = 0, uses_anonymous_args = 0
 435              		@ link register save eliminated.
 436 0000 0028     		cmp	r0, #0
 437 0002 08DB     		blt	.L51
 438 0004 00F01F02 		and	r2, r0, #31
 439 0008 4009     		lsrs	r0, r0, #5
 440 000a 0123     		movs	r3, #1
 441 000c 9340     		lsls	r3, r3, r2
 442 000e 4030     		adds	r0, r0, #64
 443 0010 014A     		ldr	r2, .L53
 444 0012 42F82030 		str	r3, [r2, r0, lsl #2]
 445              	.L51:
 446 0016 7047     		bx	lr
 447              	.L54:
 448              		.align	2
 449              	.L53:
 450 0018 00E100E0 		.word	-536813312
 452              		.section	.text.HAL_NVIC_GetPendingIRQ,"ax",%progbits
 453              		.align	1
 454              		.global	HAL_NVIC_GetPendingIRQ
 455              		.syntax unified
 456              		.thumb
 457              		.thumb_func
 458              		.fpu fpv4-sp-d16
 460              	HAL_NVIC_GetPendingIRQ:
 461              		@ args = 0, pretend = 0, frame = 0
 462              		@ frame_needed = 0, uses_anonymous_args = 0
 463              		@ link register save eliminated.
 464 0000 0028     		cmp	r0, #0
 465 0002 0BDB     		blt	.L57
 466 0004 4309     		lsrs	r3, r0, #5
 467 0006 4033     		adds	r3, r3, #64
 468 0008 054A     		ldr	r2, .L58
 469 000a 52F82330 		ldr	r3, [r2, r3, lsl #2]
 470 000e 00F01F00 		and	r0, r0, #31
 471 0012 23FA00F0 		lsr	r0, r3, r0
 472 0016 00F00100 		and	r0, r0, #1
 473 001a 7047     		bx	lr
 474              	.L57:
 475 001c 0020     		movs	r0, #0
 476 001e 7047     		bx	lr
 477              	.L59:
 478              		.align	2
 479              	.L58:
 480 0020 00E100E0 		.word	-536813312
 482              		.section	.text.HAL_NVIC_ClearPendingIRQ,"ax",%progbits
ARM GAS  /tmp/ccnOafIR.s 			page 9


 483              		.align	1
 484              		.global	HAL_NVIC_ClearPendingIRQ
 485              		.syntax unified
 486              		.thumb
 487              		.thumb_func
 488              		.fpu fpv4-sp-d16
 490              	HAL_NVIC_ClearPendingIRQ:
 491              		@ args = 0, pretend = 0, frame = 0
 492              		@ frame_needed = 0, uses_anonymous_args = 0
 493              		@ link register save eliminated.
 494 0000 0028     		cmp	r0, #0
 495 0002 08DB     		blt	.L60
 496 0004 00F01F02 		and	r2, r0, #31
 497 0008 4009     		lsrs	r0, r0, #5
 498 000a 0123     		movs	r3, #1
 499 000c 9340     		lsls	r3, r3, r2
 500 000e 6030     		adds	r0, r0, #96
 501 0010 014A     		ldr	r2, .L62
 502 0012 42F82030 		str	r3, [r2, r0, lsl #2]
 503              	.L60:
 504 0016 7047     		bx	lr
 505              	.L63:
 506              		.align	2
 507              	.L62:
 508 0018 00E100E0 		.word	-536813312
 510              		.section	.text.HAL_NVIC_GetActive,"ax",%progbits
 511              		.align	1
 512              		.global	HAL_NVIC_GetActive
 513              		.syntax unified
 514              		.thumb
 515              		.thumb_func
 516              		.fpu fpv4-sp-d16
 518              	HAL_NVIC_GetActive:
 519              		@ args = 0, pretend = 0, frame = 0
 520              		@ frame_needed = 0, uses_anonymous_args = 0
 521              		@ link register save eliminated.
 522 0000 0028     		cmp	r0, #0
 523 0002 0BDB     		blt	.L66
 524 0004 4309     		lsrs	r3, r0, #5
 525 0006 8033     		adds	r3, r3, #128
 526 0008 054A     		ldr	r2, .L67
 527 000a 52F82330 		ldr	r3, [r2, r3, lsl #2]
 528 000e 00F01F00 		and	r0, r0, #31
 529 0012 23FA00F0 		lsr	r0, r3, r0
 530 0016 00F00100 		and	r0, r0, #1
 531 001a 7047     		bx	lr
 532              	.L66:
 533 001c 0020     		movs	r0, #0
 534 001e 7047     		bx	lr
 535              	.L68:
 536              		.align	2
 537              	.L67:
 538 0020 00E100E0 		.word	-536813312
 540              		.section	.text.HAL_SYSTICK_CLKSourceConfig,"ax",%progbits
 541              		.align	1
 542              		.global	HAL_SYSTICK_CLKSourceConfig
 543              		.syntax unified
ARM GAS  /tmp/ccnOafIR.s 			page 10


 544              		.thumb
 545              		.thumb_func
 546              		.fpu fpv4-sp-d16
 548              	HAL_SYSTICK_CLKSourceConfig:
 549              		@ args = 0, pretend = 0, frame = 0
 550              		@ frame_needed = 0, uses_anonymous_args = 0
 551              		@ link register save eliminated.
 552 0000 0428     		cmp	r0, #4
 553 0002 05D0     		beq	.L72
 554 0004 054A     		ldr	r2, .L73
 555 0006 1368     		ldr	r3, [r2]
 556 0008 23F00403 		bic	r3, r3, #4
 557 000c 1360     		str	r3, [r2]
 558 000e 7047     		bx	lr
 559              	.L72:
 560 0010 024A     		ldr	r2, .L73
 561 0012 1368     		ldr	r3, [r2]
 562 0014 43F00403 		orr	r3, r3, #4
 563 0018 1360     		str	r3, [r2]
 564 001a 7047     		bx	lr
 565              	.L74:
 566              		.align	2
 567              	.L73:
 568 001c 10E000E0 		.word	-536813552
 570              		.section	.text.HAL_SYSTICK_Callback,"ax",%progbits
 571              		.align	1
 572              		.weak	HAL_SYSTICK_Callback
 573              		.syntax unified
 574              		.thumb
 575              		.thumb_func
 576              		.fpu fpv4-sp-d16
 578              	HAL_SYSTICK_Callback:
 579              		@ args = 0, pretend = 0, frame = 0
 580              		@ frame_needed = 0, uses_anonymous_args = 0
 581              		@ link register save eliminated.
 582 0000 7047     		bx	lr
 584              		.section	.text.HAL_SYSTICK_IRQHandler,"ax",%progbits
 585              		.align	1
 586              		.global	HAL_SYSTICK_IRQHandler
 587              		.syntax unified
 588              		.thumb
 589              		.thumb_func
 590              		.fpu fpv4-sp-d16
 592              	HAL_SYSTICK_IRQHandler:
 593              		@ args = 0, pretend = 0, frame = 0
 594              		@ frame_needed = 0, uses_anonymous_args = 0
 595 0000 08B5     		push	{r3, lr}
 596 0002 FFF7FEFF 		bl	HAL_SYSTICK_Callback
 597 0006 08BD     		pop	{r3, pc}
 599              		.ident	"GCC: (15:9-2019-q4-0ubuntu1) 9.2.1 20191025 (release) [ARM/arm-9-branch revision 277599]"
ARM GAS  /tmp/ccnOafIR.s 			page 11

