ARM GAS  /tmp/cckK4cHY.s 			page 1


   1              		.cpu cortex-m4
   2              		.eabi_attribute 27, 1
   3              		.eabi_attribute 28, 1
   4              		.eabi_attribute 20, 1
   5              		.eabi_attribute 21, 1
   6              		.eabi_attribute 23, 3
   7              		.eabi_attribute 24, 1
   8              		.eabi_attribute 25, 1
   9              		.eabi_attribute 26, 1
  10              		.eabi_attribute 30, 1
  11              		.eabi_attribute 34, 1
  12              		.eabi_attribute 18, 4
  13              		.file	"stm32f3xx_hal_i2c_ex.c"
  14              		.text
  15              		.section	.text.HAL_I2CEx_ConfigAnalogFilter,"ax",%progbits
  16              		.align	1
  17              		.global	HAL_I2CEx_ConfigAnalogFilter
  18              		.arch armv7e-m
  19              		.syntax unified
  20              		.thumb
  21              		.thumb_func
  22              		.fpu fpv4-sp-d16
  24              	HAL_I2CEx_ConfigAnalogFilter:
  25              		@ args = 0, pretend = 0, frame = 0
  26              		@ frame_needed = 0, uses_anonymous_args = 0
  27              		@ link register save eliminated.
  28 0000 90F84130 		ldrb	r3, [r0, #65]	@ zero_extendqisi2
  29 0004 DBB2     		uxtb	r3, r3
  30 0006 202B     		cmp	r3, #32
  31 0008 24D1     		bne	.L3
  32 000a 90F84030 		ldrb	r3, [r0, #64]	@ zero_extendqisi2
  33 000e 012B     		cmp	r3, #1
  34 0010 22D0     		beq	.L4
  35 0012 0123     		movs	r3, #1
  36 0014 80F84030 		strb	r3, [r0, #64]
  37 0018 2423     		movs	r3, #36
  38 001a 80F84130 		strb	r3, [r0, #65]
  39 001e 0268     		ldr	r2, [r0]
  40 0020 1368     		ldr	r3, [r2]
  41 0022 23F00103 		bic	r3, r3, #1
  42 0026 1360     		str	r3, [r2]
  43 0028 0268     		ldr	r2, [r0]
  44 002a 1368     		ldr	r3, [r2]
  45 002c 23F48053 		bic	r3, r3, #4096
  46 0030 1360     		str	r3, [r2]
  47 0032 0268     		ldr	r2, [r0]
  48 0034 1368     		ldr	r3, [r2]
  49 0036 1943     		orrs	r1, r1, r3
  50 0038 1160     		str	r1, [r2]
  51 003a 0268     		ldr	r2, [r0]
  52 003c 1368     		ldr	r3, [r2]
  53 003e 43F00103 		orr	r3, r3, #1
  54 0042 1360     		str	r3, [r2]
  55 0044 2023     		movs	r3, #32
  56 0046 80F84130 		strb	r3, [r0, #65]
  57 004a 0023     		movs	r3, #0
  58 004c 80F84030 		strb	r3, [r0, #64]
ARM GAS  /tmp/cckK4cHY.s 			page 2


  59 0050 1846     		mov	r0, r3
  60 0052 7047     		bx	lr
  61              	.L3:
  62 0054 0220     		movs	r0, #2
  63 0056 7047     		bx	lr
  64              	.L4:
  65 0058 0220     		movs	r0, #2
  66 005a 7047     		bx	lr
  68              		.section	.text.HAL_I2CEx_ConfigDigitalFilter,"ax",%progbits
  69              		.align	1
  70              		.global	HAL_I2CEx_ConfigDigitalFilter
  71              		.syntax unified
  72              		.thumb
  73              		.thumb_func
  74              		.fpu fpv4-sp-d16
  76              	HAL_I2CEx_ConfigDigitalFilter:
  77              		@ args = 0, pretend = 0, frame = 0
  78              		@ frame_needed = 0, uses_anonymous_args = 0
  79              		@ link register save eliminated.
  80 0000 90F84130 		ldrb	r3, [r0, #65]	@ zero_extendqisi2
  81 0004 DBB2     		uxtb	r3, r3
  82 0006 202B     		cmp	r3, #32
  83 0008 22D1     		bne	.L7
  84 000a 90F84030 		ldrb	r3, [r0, #64]	@ zero_extendqisi2
  85 000e 012B     		cmp	r3, #1
  86 0010 20D0     		beq	.L8
  87 0012 0123     		movs	r3, #1
  88 0014 80F84030 		strb	r3, [r0, #64]
  89 0018 2423     		movs	r3, #36
  90 001a 80F84130 		strb	r3, [r0, #65]
  91 001e 0268     		ldr	r2, [r0]
  92 0020 1368     		ldr	r3, [r2]
  93 0022 23F00103 		bic	r3, r3, #1
  94 0026 1360     		str	r3, [r2]
  95 0028 0268     		ldr	r2, [r0]
  96 002a 1368     		ldr	r3, [r2]
  97 002c 23F47063 		bic	r3, r3, #3840
  98 0030 43EA0121 		orr	r1, r3, r1, lsl #8
  99 0034 1160     		str	r1, [r2]
 100 0036 0268     		ldr	r2, [r0]
 101 0038 1368     		ldr	r3, [r2]
 102 003a 43F00103 		orr	r3, r3, #1
 103 003e 1360     		str	r3, [r2]
 104 0040 2023     		movs	r3, #32
 105 0042 80F84130 		strb	r3, [r0, #65]
 106 0046 0023     		movs	r3, #0
 107 0048 80F84030 		strb	r3, [r0, #64]
 108 004c 1846     		mov	r0, r3
 109 004e 7047     		bx	lr
 110              	.L7:
 111 0050 0220     		movs	r0, #2
 112 0052 7047     		bx	lr
 113              	.L8:
 114 0054 0220     		movs	r0, #2
 115 0056 7047     		bx	lr
 117              		.section	.text.HAL_I2CEx_EnableWakeUp,"ax",%progbits
 118              		.align	1
ARM GAS  /tmp/cckK4cHY.s 			page 3


 119              		.global	HAL_I2CEx_EnableWakeUp
 120              		.syntax unified
 121              		.thumb
 122              		.thumb_func
 123              		.fpu fpv4-sp-d16
 125              	HAL_I2CEx_EnableWakeUp:
 126              		@ args = 0, pretend = 0, frame = 0
 127              		@ frame_needed = 0, uses_anonymous_args = 0
 128              		@ link register save eliminated.
 129 0000 90F84130 		ldrb	r3, [r0, #65]	@ zero_extendqisi2
 130 0004 DBB2     		uxtb	r3, r3
 131 0006 202B     		cmp	r3, #32
 132 0008 20D1     		bne	.L11
 133 000a 90F84030 		ldrb	r3, [r0, #64]	@ zero_extendqisi2
 134 000e 012B     		cmp	r3, #1
 135 0010 1ED0     		beq	.L12
 136 0012 0123     		movs	r3, #1
 137 0014 80F84030 		strb	r3, [r0, #64]
 138 0018 2423     		movs	r3, #36
 139 001a 80F84130 		strb	r3, [r0, #65]
 140 001e 0268     		ldr	r2, [r0]
 141 0020 1368     		ldr	r3, [r2]
 142 0022 23F00103 		bic	r3, r3, #1
 143 0026 1360     		str	r3, [r2]
 144 0028 0268     		ldr	r2, [r0]
 145 002a 1368     		ldr	r3, [r2]
 146 002c 43F48023 		orr	r3, r3, #262144
 147 0030 1360     		str	r3, [r2]
 148 0032 0268     		ldr	r2, [r0]
 149 0034 1368     		ldr	r3, [r2]
 150 0036 43F00103 		orr	r3, r3, #1
 151 003a 1360     		str	r3, [r2]
 152 003c 2023     		movs	r3, #32
 153 003e 80F84130 		strb	r3, [r0, #65]
 154 0042 0023     		movs	r3, #0
 155 0044 80F84030 		strb	r3, [r0, #64]
 156 0048 1846     		mov	r0, r3
 157 004a 7047     		bx	lr
 158              	.L11:
 159 004c 0220     		movs	r0, #2
 160 004e 7047     		bx	lr
 161              	.L12:
 162 0050 0220     		movs	r0, #2
 163 0052 7047     		bx	lr
 165              		.section	.text.HAL_I2CEx_DisableWakeUp,"ax",%progbits
 166              		.align	1
 167              		.global	HAL_I2CEx_DisableWakeUp
 168              		.syntax unified
 169              		.thumb
 170              		.thumb_func
 171              		.fpu fpv4-sp-d16
 173              	HAL_I2CEx_DisableWakeUp:
 174              		@ args = 0, pretend = 0, frame = 0
 175              		@ frame_needed = 0, uses_anonymous_args = 0
 176              		@ link register save eliminated.
 177 0000 90F84130 		ldrb	r3, [r0, #65]	@ zero_extendqisi2
 178 0004 DBB2     		uxtb	r3, r3
ARM GAS  /tmp/cckK4cHY.s 			page 4


 179 0006 202B     		cmp	r3, #32
 180 0008 20D1     		bne	.L15
 181 000a 90F84030 		ldrb	r3, [r0, #64]	@ zero_extendqisi2
 182 000e 012B     		cmp	r3, #1
 183 0010 1ED0     		beq	.L16
 184 0012 0123     		movs	r3, #1
 185 0014 80F84030 		strb	r3, [r0, #64]
 186 0018 2423     		movs	r3, #36
 187 001a 80F84130 		strb	r3, [r0, #65]
 188 001e 0268     		ldr	r2, [r0]
 189 0020 1368     		ldr	r3, [r2]
 190 0022 23F00103 		bic	r3, r3, #1
 191 0026 1360     		str	r3, [r2]
 192 0028 0268     		ldr	r2, [r0]
 193 002a 1368     		ldr	r3, [r2]
 194 002c 23F48023 		bic	r3, r3, #262144
 195 0030 1360     		str	r3, [r2]
 196 0032 0268     		ldr	r2, [r0]
 197 0034 1368     		ldr	r3, [r2]
 198 0036 43F00103 		orr	r3, r3, #1
 199 003a 1360     		str	r3, [r2]
 200 003c 2023     		movs	r3, #32
 201 003e 80F84130 		strb	r3, [r0, #65]
 202 0042 0023     		movs	r3, #0
 203 0044 80F84030 		strb	r3, [r0, #64]
 204 0048 1846     		mov	r0, r3
 205 004a 7047     		bx	lr
 206              	.L15:
 207 004c 0220     		movs	r0, #2
 208 004e 7047     		bx	lr
 209              	.L16:
 210 0050 0220     		movs	r0, #2
 211 0052 7047     		bx	lr
 213              		.section	.text.HAL_I2CEx_EnableFastModePlus,"ax",%progbits
 214              		.align	1
 215              		.global	HAL_I2CEx_EnableFastModePlus
 216              		.syntax unified
 217              		.thumb
 218              		.thumb_func
 219              		.fpu fpv4-sp-d16
 221              	HAL_I2CEx_EnableFastModePlus:
 222              		@ args = 0, pretend = 0, frame = 8
 223              		@ frame_needed = 0, uses_anonymous_args = 0
 224              		@ link register save eliminated.
 225 0000 82B0     		sub	sp, sp, #8
 226 0002 084A     		ldr	r2, .L19
 227 0004 9169     		ldr	r1, [r2, #24]
 228 0006 41F00101 		orr	r1, r1, #1
 229 000a 9161     		str	r1, [r2, #24]
 230 000c 9269     		ldr	r2, [r2, #24]
 231 000e 02F00102 		and	r2, r2, #1
 232 0012 0192     		str	r2, [sp, #4]
 233 0014 019B     		ldr	r3, [sp, #4]
 234 0016 044A     		ldr	r2, .L19+4
 235 0018 1368     		ldr	r3, [r2]
 236 001a 0343     		orrs	r3, r3, r0
 237 001c 1360     		str	r3, [r2]
ARM GAS  /tmp/cckK4cHY.s 			page 5


 238 001e 02B0     		add	sp, sp, #8
 239              		@ sp needed
 240 0020 7047     		bx	lr
 241              	.L20:
 242 0022 00BF     		.align	2
 243              	.L19:
 244 0024 00100240 		.word	1073876992
 245 0028 00000140 		.word	1073807360
 247              		.section	.text.HAL_I2CEx_DisableFastModePlus,"ax",%progbits
 248              		.align	1
 249              		.global	HAL_I2CEx_DisableFastModePlus
 250              		.syntax unified
 251              		.thumb
 252              		.thumb_func
 253              		.fpu fpv4-sp-d16
 255              	HAL_I2CEx_DisableFastModePlus:
 256              		@ args = 0, pretend = 0, frame = 8
 257              		@ frame_needed = 0, uses_anonymous_args = 0
 258              		@ link register save eliminated.
 259 0000 82B0     		sub	sp, sp, #8
 260 0002 084A     		ldr	r2, .L23
 261 0004 9169     		ldr	r1, [r2, #24]
 262 0006 41F00101 		orr	r1, r1, #1
 263 000a 9161     		str	r1, [r2, #24]
 264 000c 9269     		ldr	r2, [r2, #24]
 265 000e 02F00102 		and	r2, r2, #1
 266 0012 0192     		str	r2, [sp, #4]
 267 0014 019B     		ldr	r3, [sp, #4]
 268 0016 044A     		ldr	r2, .L23+4
 269 0018 1368     		ldr	r3, [r2]
 270 001a 23EA0003 		bic	r3, r3, r0
 271 001e 1360     		str	r3, [r2]
 272 0020 02B0     		add	sp, sp, #8
 273              		@ sp needed
 274 0022 7047     		bx	lr
 275              	.L24:
 276              		.align	2
 277              	.L23:
 278 0024 00100240 		.word	1073876992
 279 0028 00000140 		.word	1073807360
 281              		.ident	"GCC: (15:9-2019-q4-0ubuntu1) 9.2.1 20191025 (release) [ARM/arm-9-branch revision 277599]"
ARM GAS  /tmp/cckK4cHY.s 			page 6

