ARM GAS  /tmp/ccpwrirk.s 			page 1


   1              		.cpu cortex-m4
   2              		.eabi_attribute 27, 1
   3              		.eabi_attribute 28, 1
   4              		.eabi_attribute 20, 1
   5              		.eabi_attribute 21, 1
   6              		.eabi_attribute 23, 3
   7              		.eabi_attribute 24, 1
   8              		.eabi_attribute 25, 1
   9              		.eabi_attribute 26, 1
  10              		.eabi_attribute 30, 1
  11              		.eabi_attribute 34, 1
  12              		.eabi_attribute 18, 4
  13              		.file	"stm32f3xx_hal_gpio.c"
  14              		.text
  15              		.section	.text.HAL_GPIO_Init,"ax",%progbits
  16              		.align	1
  17              		.global	HAL_GPIO_Init
  18              		.arch armv7e-m
  19              		.syntax unified
  20              		.thumb
  21              		.thumb_func
  22              		.fpu fpv4-sp-d16
  24              	HAL_GPIO_Init:
  25              		@ args = 0, pretend = 0, frame = 8
  26              		@ frame_needed = 0, uses_anonymous_args = 0
  27              		@ link register save eliminated.
  28 0000 F0B4     		push	{r4, r5, r6, r7}
  29 0002 82B0     		sub	sp, sp, #8
  30 0004 0023     		movs	r3, #0
  31 0006 5BE0     		b	.L2
  32              	.L20:
  33 0008 8668     		ldr	r6, [r0, #8]
  34 000a 5F00     		lsls	r7, r3, #1
  35 000c 0325     		movs	r5, #3
  36 000e BD40     		lsls	r5, r5, r7
  37 0010 26EA0506 		bic	r6, r6, r5
  38 0014 CD68     		ldr	r5, [r1, #12]
  39 0016 BD40     		lsls	r5, r5, r7
  40 0018 3543     		orrs	r5, r5, r6
  41 001a 8560     		str	r5, [r0, #8]
  42 001c 4668     		ldr	r6, [r0, #4]
  43 001e 26EA0406 		bic	r6, r6, r4
  44 0022 4D68     		ldr	r5, [r1, #4]
  45 0024 C5F30014 		ubfx	r4, r5, #4, #1
  46 0028 9C40     		lsls	r4, r4, r3
  47 002a 3443     		orrs	r4, r4, r6
  48 002c 4460     		str	r4, [r0, #4]
  49 002e 55E0     		b	.L4
  50              	.L21:
  51 0030 DD08     		lsrs	r5, r3, #3
  52 0032 0835     		adds	r5, r5, #8
  53 0034 50F82570 		ldr	r7, [r0, r5, lsl #2]
  54 0038 03F00704 		and	r4, r3, #7
  55 003c A600     		lsls	r6, r4, #2
  56 003e 0F24     		movs	r4, #15
  57 0040 B440     		lsls	r4, r4, r6
  58 0042 27EA0407 		bic	r7, r7, r4
ARM GAS  /tmp/ccpwrirk.s 			page 2


  59 0046 0C69     		ldr	r4, [r1, #16]
  60 0048 B440     		lsls	r4, r4, r6
  61 004a 3C43     		orrs	r4, r4, r7
  62 004c 40F82540 		str	r4, [r0, r5, lsl #2]
  63 0050 58E0     		b	.L6
  64              	.L22:
  65 0052 0424     		movs	r4, #4
  66 0054 00E0     		b	.L7
  67              	.L13:
  68 0056 0024     		movs	r4, #0
  69              	.L7:
  70 0058 B440     		lsls	r4, r4, r6
  71 005a 3C43     		orrs	r4, r4, r7
  72 005c 0235     		adds	r5, r5, #2
  73 005e 4C4E     		ldr	r6, .L23
  74 0060 46F82540 		str	r4, [r6, r5, lsl #2]
  75 0064 4B4C     		ldr	r4, .L23+4
  76 0066 2568     		ldr	r5, [r4]
  77 0068 D443     		mvns	r4, r2
  78 006a 25EA0206 		bic	r6, r5, r2
  79 006e 4F68     		ldr	r7, [r1, #4]
  80 0070 17F4803F 		tst	r7, #65536
  81 0074 01D0     		beq	.L8
  82 0076 42EA0506 		orr	r6, r2, r5
  83              	.L8:
  84 007a 464D     		ldr	r5, .L23+4
  85 007c 2E60     		str	r6, [r5]
  86 007e 6D68     		ldr	r5, [r5, #4]
  87 0080 04EA0506 		and	r6, r4, r5
  88 0084 4F68     		ldr	r7, [r1, #4]
  89 0086 17F4003F 		tst	r7, #131072
  90 008a 01D0     		beq	.L9
  91 008c 42EA0506 		orr	r6, r2, r5
  92              	.L9:
  93 0090 404D     		ldr	r5, .L23+4
  94 0092 6E60     		str	r6, [r5, #4]
  95 0094 AD68     		ldr	r5, [r5, #8]
  96 0096 04EA0506 		and	r6, r4, r5
  97 009a 4F68     		ldr	r7, [r1, #4]
  98 009c 17F4801F 		tst	r7, #1048576
  99 00a0 01D0     		beq	.L10
 100 00a2 42EA0506 		orr	r6, r2, r5
 101              	.L10:
 102 00a6 3B4D     		ldr	r5, .L23+4
 103 00a8 AE60     		str	r6, [r5, #8]
 104 00aa ED68     		ldr	r5, [r5, #12]
 105 00ac 2C40     		ands	r4, r4, r5
 106 00ae 4E68     		ldr	r6, [r1, #4]
 107 00b0 16F4001F 		tst	r6, #2097152
 108 00b4 01D0     		beq	.L11
 109 00b6 42EA0504 		orr	r4, r2, r5
 110              	.L11:
 111 00ba 364A     		ldr	r2, .L23+4
 112 00bc D460     		str	r4, [r2, #12]
 113              	.L3:
 114 00be 0133     		adds	r3, r3, #1
 115              	.L2:
ARM GAS  /tmp/ccpwrirk.s 			page 3


 116 00c0 0A68     		ldr	r2, [r1]
 117 00c2 32FA03F4 		lsrs	r4, r2, r3
 118 00c6 5FD0     		beq	.L19
 119 00c8 0124     		movs	r4, #1
 120 00ca 9C40     		lsls	r4, r4, r3
 121 00cc 2240     		ands	r2, r4, r2
 122 00ce F6D0     		beq	.L3
 123 00d0 4D68     		ldr	r5, [r1, #4]
 124 00d2 05F00305 		and	r5, r5, #3
 125 00d6 013D     		subs	r5, r5, #1
 126 00d8 012D     		cmp	r5, #1
 127 00da 95D9     		bls	.L20
 128              	.L4:
 129 00dc 4C68     		ldr	r4, [r1, #4]
 130 00de 04F00304 		and	r4, r4, #3
 131 00e2 032C     		cmp	r4, #3
 132 00e4 09D0     		beq	.L5
 133 00e6 C568     		ldr	r5, [r0, #12]
 134 00e8 5E00     		lsls	r6, r3, #1
 135 00ea 0324     		movs	r4, #3
 136 00ec B440     		lsls	r4, r4, r6
 137 00ee 25EA0405 		bic	r5, r5, r4
 138 00f2 8C68     		ldr	r4, [r1, #8]
 139 00f4 B440     		lsls	r4, r4, r6
 140 00f6 2C43     		orrs	r4, r4, r5
 141 00f8 C460     		str	r4, [r0, #12]
 142              	.L5:
 143 00fa 4C68     		ldr	r4, [r1, #4]
 144 00fc 04F00304 		and	r4, r4, #3
 145 0100 022C     		cmp	r4, #2
 146 0102 95D0     		beq	.L21
 147              	.L6:
 148 0104 0568     		ldr	r5, [r0]
 149 0106 5E00     		lsls	r6, r3, #1
 150 0108 0324     		movs	r4, #3
 151 010a B440     		lsls	r4, r4, r6
 152 010c 25EA0405 		bic	r5, r5, r4
 153 0110 4C68     		ldr	r4, [r1, #4]
 154 0112 04F00304 		and	r4, r4, #3
 155 0116 B440     		lsls	r4, r4, r6
 156 0118 2C43     		orrs	r4, r4, r5
 157 011a 0460     		str	r4, [r0]
 158 011c 4C68     		ldr	r4, [r1, #4]
 159 011e 14F4403F 		tst	r4, #196608
 160 0122 CCD0     		beq	.L3
 161 0124 1C4C     		ldr	r4, .L23+8
 162 0126 A569     		ldr	r5, [r4, #24]
 163 0128 45F00105 		orr	r5, r5, #1
 164 012c A561     		str	r5, [r4, #24]
 165 012e A469     		ldr	r4, [r4, #24]
 166 0130 04F00104 		and	r4, r4, #1
 167 0134 0194     		str	r4, [sp, #4]
 168 0136 019C     		ldr	r4, [sp, #4]
 169 0138 9D08     		lsrs	r5, r3, #2
 170 013a AE1C     		adds	r6, r5, #2
 171 013c 144C     		ldr	r4, .L23
 172 013e 54F82670 		ldr	r7, [r4, r6, lsl #2]
ARM GAS  /tmp/ccpwrirk.s 			page 4


 173 0142 03F00304 		and	r4, r3, #3
 174 0146 A600     		lsls	r6, r4, #2
 175 0148 0F24     		movs	r4, #15
 176 014a B440     		lsls	r4, r4, r6
 177 014c 27EA0407 		bic	r7, r7, r4
 178 0150 B0F1904F 		cmp	r0, #1207959552
 179 0154 3FF47FAF 		beq	.L13
 180 0158 104C     		ldr	r4, .L23+12
 181 015a A042     		cmp	r0, r4
 182 015c 0ED0     		beq	.L14
 183 015e 04F58064 		add	r4, r4, #1024
 184 0162 A042     		cmp	r0, r4
 185 0164 0CD0     		beq	.L15
 186 0166 04F58064 		add	r4, r4, #1024
 187 016a A042     		cmp	r0, r4
 188 016c 0AD0     		beq	.L16
 189 016e 04F58064 		add	r4, r4, #1024
 190 0172 A042     		cmp	r0, r4
 191 0174 3FF46DAF 		beq	.L22
 192 0178 0524     		movs	r4, #5
 193 017a 6DE7     		b	.L7
 194              	.L14:
 195 017c 0124     		movs	r4, #1
 196 017e 6BE7     		b	.L7
 197              	.L15:
 198 0180 0224     		movs	r4, #2
 199 0182 69E7     		b	.L7
 200              	.L16:
 201 0184 0324     		movs	r4, #3
 202 0186 67E7     		b	.L7
 203              	.L19:
 204 0188 02B0     		add	sp, sp, #8
 205              		@ sp needed
 206 018a F0BC     		pop	{r4, r5, r6, r7}
 207 018c 7047     		bx	lr
 208              	.L24:
 209 018e 00BF     		.align	2
 210              	.L23:
 211 0190 00000140 		.word	1073807360
 212 0194 00040140 		.word	1073808384
 213 0198 00100240 		.word	1073876992
 214 019c 00040048 		.word	1207960576
 216              		.section	.text.HAL_GPIO_DeInit,"ax",%progbits
 217              		.align	1
 218              		.global	HAL_GPIO_DeInit
 219              		.syntax unified
 220              		.thumb
 221              		.thumb_func
 222              		.fpu fpv4-sp-d16
 224              	HAL_GPIO_DeInit:
 225              		@ args = 0, pretend = 0, frame = 0
 226              		@ frame_needed = 0, uses_anonymous_args = 0
 227 0000 0023     		movs	r3, #0
 228 0002 31FA03F2 		lsrs	r2, r1, r3
 229 0006 79D0     		beq	.L39
 230 0008 F0B5     		push	{r4, r5, r6, r7, lr}
 231 000a 2EE0     		b	.L30
ARM GAS  /tmp/ccpwrirk.s 			page 5


 232              	.L42:
 233 000c 0426     		movs	r6, #4
 234 000e 00E0     		b	.L28
 235              	.L31:
 236 0010 0026     		movs	r6, #0
 237              	.L28:
 238 0012 06FA04F4 		lsl	r4, r6, r4
 239 0016 AC42     		cmp	r4, r5
 240 0018 54D0     		beq	.L40
 241              	.L29:
 242 001a 0568     		ldr	r5, [r0]
 243 001c 5C00     		lsls	r4, r3, #1
 244 001e 0326     		movs	r6, #3
 245 0020 06FA04F4 		lsl	r4, r6, r4
 246 0024 25EA0405 		bic	r5, r5, r4
 247 0028 0560     		str	r5, [r0]
 248 002a 23FA06F5 		lsr	r5, r3, r6
 249 002e 0835     		adds	r5, r5, #8
 250 0030 50F82560 		ldr	r6, [r0, r5, lsl #2]
 251 0034 03F00707 		and	r7, r3, #7
 252 0038 4FEA870C 		lsl	ip, r7, #2
 253 003c 0F27     		movs	r7, #15
 254 003e 07FA0CF7 		lsl	r7, r7, ip
 255 0042 26EA0706 		bic	r6, r6, r7
 256 0046 40F82560 		str	r6, [r0, r5, lsl #2]
 257 004a C568     		ldr	r5, [r0, #12]
 258 004c 25EA0405 		bic	r5, r5, r4
 259 0050 C560     		str	r5, [r0, #12]
 260 0052 4568     		ldr	r5, [r0, #4]
 261 0054 25EA0202 		bic	r2, r5, r2
 262 0058 4260     		str	r2, [r0, #4]
 263 005a 8268     		ldr	r2, [r0, #8]
 264 005c 22EA0404 		bic	r4, r2, r4
 265 0060 8460     		str	r4, [r0, #8]
 266              	.L27:
 267 0062 0133     		adds	r3, r3, #1
 268 0064 31FA03F2 		lsrs	r2, r1, r3
 269 0068 47D0     		beq	.L41
 270              	.L30:
 271 006a 0122     		movs	r2, #1
 272 006c 9A40     		lsls	r2, r2, r3
 273 006e 12EA010E 		ands	lr, r2, r1
 274 0072 F6D0     		beq	.L27
 275 0074 4FEA930C 		lsr	ip, r3, #2
 276 0078 0CF10205 		add	r5, ip, #2
 277 007c 204C     		ldr	r4, .L43
 278 007e 54F82550 		ldr	r5, [r4, r5, lsl #2]
 279 0082 03F00304 		and	r4, r3, #3
 280 0086 A400     		lsls	r4, r4, #2
 281 0088 0F26     		movs	r6, #15
 282 008a 06FA04F7 		lsl	r7, r6, r4
 283 008e 3D40     		ands	r5, r5, r7
 284 0090 B0F1904F 		cmp	r0, #1207959552
 285 0094 BCD0     		beq	.L31
 286 0096 1B4E     		ldr	r6, .L43+4
 287 0098 B042     		cmp	r0, r6
 288 009a 0DD0     		beq	.L32
ARM GAS  /tmp/ccpwrirk.s 			page 6


 289 009c 06F58066 		add	r6, r6, #1024
 290 00a0 B042     		cmp	r0, r6
 291 00a2 0BD0     		beq	.L33
 292 00a4 06F58066 		add	r6, r6, #1024
 293 00a8 B042     		cmp	r0, r6
 294 00aa 09D0     		beq	.L34
 295 00ac 06F58066 		add	r6, r6, #1024
 296 00b0 B042     		cmp	r0, r6
 297 00b2 ABD0     		beq	.L42
 298 00b4 0526     		movs	r6, #5
 299 00b6 ACE7     		b	.L28
 300              	.L32:
 301 00b8 0126     		movs	r6, #1
 302 00ba AAE7     		b	.L28
 303              	.L33:
 304 00bc 0226     		movs	r6, #2
 305 00be A8E7     		b	.L28
 306              	.L34:
 307 00c0 0326     		movs	r6, #3
 308 00c2 A6E7     		b	.L28
 309              	.L40:
 310 00c4 104C     		ldr	r4, .L43+8
 311 00c6 2568     		ldr	r5, [r4]
 312 00c8 25EA0E05 		bic	r5, r5, lr
 313 00cc 2560     		str	r5, [r4]
 314 00ce 6568     		ldr	r5, [r4, #4]
 315 00d0 25EA0E05 		bic	r5, r5, lr
 316 00d4 6560     		str	r5, [r4, #4]
 317 00d6 A568     		ldr	r5, [r4, #8]
 318 00d8 25EA0E05 		bic	r5, r5, lr
 319 00dc A560     		str	r5, [r4, #8]
 320 00de E568     		ldr	r5, [r4, #12]
 321 00e0 25EA0E05 		bic	r5, r5, lr
 322 00e4 E560     		str	r5, [r4, #12]
 323 00e6 064D     		ldr	r5, .L43
 324 00e8 0CF10204 		add	r4, ip, #2
 325 00ec 55F82460 		ldr	r6, [r5, r4, lsl #2]
 326 00f0 26EA0706 		bic	r6, r6, r7
 327 00f4 45F82460 		str	r6, [r5, r4, lsl #2]
 328 00f8 8FE7     		b	.L29
 329              	.L41:
 330 00fa F0BD     		pop	{r4, r5, r6, r7, pc}
 331              	.L39:
 332 00fc 7047     		bx	lr
 333              	.L44:
 334 00fe 00BF     		.align	2
 335              	.L43:
 336 0100 00000140 		.word	1073807360
 337 0104 00040048 		.word	1207960576
 338 0108 00040140 		.word	1073808384
 340              		.section	.text.HAL_GPIO_ReadPin,"ax",%progbits
 341              		.align	1
 342              		.global	HAL_GPIO_ReadPin
 343              		.syntax unified
 344              		.thumb
 345              		.thumb_func
 346              		.fpu fpv4-sp-d16
ARM GAS  /tmp/ccpwrirk.s 			page 7


 348              	HAL_GPIO_ReadPin:
 349              		@ args = 0, pretend = 0, frame = 0
 350              		@ frame_needed = 0, uses_anonymous_args = 0
 351              		@ link register save eliminated.
 352 0000 0369     		ldr	r3, [r0, #16]
 353 0002 1942     		tst	r1, r3
 354 0004 01D0     		beq	.L47
 355 0006 0120     		movs	r0, #1
 356 0008 7047     		bx	lr
 357              	.L47:
 358 000a 0020     		movs	r0, #0
 359 000c 7047     		bx	lr
 361              		.section	.text.HAL_GPIO_WritePin,"ax",%progbits
 362              		.align	1
 363              		.global	HAL_GPIO_WritePin
 364              		.syntax unified
 365              		.thumb
 366              		.thumb_func
 367              		.fpu fpv4-sp-d16
 369              	HAL_GPIO_WritePin:
 370              		@ args = 0, pretend = 0, frame = 0
 371              		@ frame_needed = 0, uses_anonymous_args = 0
 372              		@ link register save eliminated.
 373 0000 0AB1     		cbz	r2, .L49
 374 0002 8161     		str	r1, [r0, #24]
 375 0004 7047     		bx	lr
 376              	.L49:
 377 0006 8162     		str	r1, [r0, #40]
 378 0008 7047     		bx	lr
 380              		.section	.text.HAL_GPIO_TogglePin,"ax",%progbits
 381              		.align	1
 382              		.global	HAL_GPIO_TogglePin
 383              		.syntax unified
 384              		.thumb
 385              		.thumb_func
 386              		.fpu fpv4-sp-d16
 388              	HAL_GPIO_TogglePin:
 389              		@ args = 0, pretend = 0, frame = 0
 390              		@ frame_needed = 0, uses_anonymous_args = 0
 391              		@ link register save eliminated.
 392 0000 4369     		ldr	r3, [r0, #20]
 393 0002 01EA0302 		and	r2, r1, r3
 394 0006 21EA0301 		bic	r1, r1, r3
 395 000a 41EA0241 		orr	r1, r1, r2, lsl #16
 396 000e 8161     		str	r1, [r0, #24]
 397 0010 7047     		bx	lr
 399              		.section	.text.HAL_GPIO_LockPin,"ax",%progbits
 400              		.align	1
 401              		.global	HAL_GPIO_LockPin
 402              		.syntax unified
 403              		.thumb
 404              		.thumb_func
 405              		.fpu fpv4-sp-d16
 407              	HAL_GPIO_LockPin:
 408              		@ args = 0, pretend = 0, frame = 8
 409              		@ frame_needed = 0, uses_anonymous_args = 0
 410              		@ link register save eliminated.
ARM GAS  /tmp/ccpwrirk.s 			page 8


 411 0000 82B0     		sub	sp, sp, #8
 412 0002 4FF48033 		mov	r3, #65536
 413 0006 0193     		str	r3, [sp, #4]
 414 0008 019B     		ldr	r3, [sp, #4]
 415 000a 0B43     		orrs	r3, r3, r1
 416 000c 0193     		str	r3, [sp, #4]
 417 000e 019B     		ldr	r3, [sp, #4]
 418 0010 C361     		str	r3, [r0, #28]
 419 0012 C161     		str	r1, [r0, #28]
 420 0014 019B     		ldr	r3, [sp, #4]
 421 0016 C361     		str	r3, [r0, #28]
 422 0018 C369     		ldr	r3, [r0, #28]
 423 001a 0193     		str	r3, [sp, #4]
 424 001c C369     		ldr	r3, [r0, #28]
 425 001e 13F4803F 		tst	r3, #65536
 426 0022 02D0     		beq	.L54
 427 0024 0020     		movs	r0, #0
 428              	.L53:
 429 0026 02B0     		add	sp, sp, #8
 430              		@ sp needed
 431 0028 7047     		bx	lr
 432              	.L54:
 433 002a 0120     		movs	r0, #1
 434 002c FBE7     		b	.L53
 436              		.section	.text.HAL_GPIO_EXTI_Callback,"ax",%progbits
 437              		.align	1
 438              		.weak	HAL_GPIO_EXTI_Callback
 439              		.syntax unified
 440              		.thumb
 441              		.thumb_func
 442              		.fpu fpv4-sp-d16
 444              	HAL_GPIO_EXTI_Callback:
 445              		@ args = 0, pretend = 0, frame = 0
 446              		@ frame_needed = 0, uses_anonymous_args = 0
 447              		@ link register save eliminated.
 448 0000 7047     		bx	lr
 450              		.section	.text.HAL_GPIO_EXTI_IRQHandler,"ax",%progbits
 451              		.align	1
 452              		.global	HAL_GPIO_EXTI_IRQHandler
 453              		.syntax unified
 454              		.thumb
 455              		.thumb_func
 456              		.fpu fpv4-sp-d16
 458              	HAL_GPIO_EXTI_IRQHandler:
 459              		@ args = 0, pretend = 0, frame = 0
 460              		@ frame_needed = 0, uses_anonymous_args = 0
 461 0000 08B5     		push	{r3, lr}
 462 0002 054B     		ldr	r3, .L61
 463 0004 5B69     		ldr	r3, [r3, #20]
 464 0006 0342     		tst	r3, r0
 465 0008 00D1     		bne	.L60
 466              	.L57:
 467 000a 08BD     		pop	{r3, pc}
 468              	.L60:
 469 000c 024B     		ldr	r3, .L61
 470 000e 5861     		str	r0, [r3, #20]
 471 0010 FFF7FEFF 		bl	HAL_GPIO_EXTI_Callback
ARM GAS  /tmp/ccpwrirk.s 			page 9


 472 0014 F9E7     		b	.L57
 473              	.L62:
 474 0016 00BF     		.align	2
 475              	.L61:
 476 0018 00040140 		.word	1073808384
 478              		.ident	"GCC: (15:9-2019-q4-0ubuntu1) 9.2.1 20191025 (release) [ARM/arm-9-branch revision 277599]"
ARM GAS  /tmp/ccpwrirk.s 			page 10

