ARM GAS  /tmp/ccuujG3v.s 			page 1


   1              		.cpu cortex-m4
   2              		.eabi_attribute 27, 1
   3              		.eabi_attribute 28, 1
   4              		.eabi_attribute 20, 1
   5              		.eabi_attribute 21, 1
   6              		.eabi_attribute 23, 3
   7              		.eabi_attribute 24, 1
   8              		.eabi_attribute 25, 1
   9              		.eabi_attribute 26, 1
  10              		.eabi_attribute 30, 1
  11              		.eabi_attribute 34, 1
  12              		.eabi_attribute 18, 4
  13              		.file	"stm32f3xx_hal.c"
  14              		.text
  15              		.section	.text.HAL_MspInit,"ax",%progbits
  16              		.align	1
  17              		.weak	HAL_MspInit
  18              		.arch armv7e-m
  19              		.syntax unified
  20              		.thumb
  21              		.thumb_func
  22              		.fpu fpv4-sp-d16
  24              	HAL_MspInit:
  25              		@ args = 0, pretend = 0, frame = 0
  26              		@ frame_needed = 0, uses_anonymous_args = 0
  27              		@ link register save eliminated.
  28 0000 7047     		bx	lr
  30              		.section	.text.HAL_MspDeInit,"ax",%progbits
  31              		.align	1
  32              		.weak	HAL_MspDeInit
  33              		.syntax unified
  34              		.thumb
  35              		.thumb_func
  36              		.fpu fpv4-sp-d16
  38              	HAL_MspDeInit:
  39              		@ args = 0, pretend = 0, frame = 0
  40              		@ frame_needed = 0, uses_anonymous_args = 0
  41              		@ link register save eliminated.
  42 0000 7047     		bx	lr
  44              		.section	.text.HAL_DeInit,"ax",%progbits
  45              		.align	1
  46              		.global	HAL_DeInit
  47              		.syntax unified
  48              		.thumb
  49              		.thumb_func
  50              		.fpu fpv4-sp-d16
  52              	HAL_DeInit:
  53              		@ args = 0, pretend = 0, frame = 0
  54              		@ frame_needed = 0, uses_anonymous_args = 0
  55 0000 10B5     		push	{r4, lr}
  56 0002 074B     		ldr	r3, .L5
  57 0004 4FF0FF32 		mov	r2, #-1
  58 0008 1A61     		str	r2, [r3, #16]
  59 000a 0024     		movs	r4, #0
  60 000c 1C61     		str	r4, [r3, #16]
  61 000e DA60     		str	r2, [r3, #12]
  62 0010 DC60     		str	r4, [r3, #12]
ARM GAS  /tmp/ccuujG3v.s 			page 2


  63 0012 9A62     		str	r2, [r3, #40]
  64 0014 9C62     		str	r4, [r3, #40]
  65 0016 FFF7FEFF 		bl	HAL_MspDeInit
  66 001a 2046     		mov	r0, r4
  67 001c 10BD     		pop	{r4, pc}
  68              	.L6:
  69 001e 00BF     		.align	2
  70              	.L5:
  71 0020 00100240 		.word	1073876992
  73              		.section	.text.HAL_InitTick,"ax",%progbits
  74              		.align	1
  75              		.weak	HAL_InitTick
  76              		.syntax unified
  77              		.thumb
  78              		.thumb_func
  79              		.fpu fpv4-sp-d16
  81              	HAL_InitTick:
  82              		@ args = 0, pretend = 0, frame = 0
  83              		@ frame_needed = 0, uses_anonymous_args = 0
  84 0000 10B5     		push	{r4, lr}
  85 0002 0446     		mov	r4, r0
  86 0004 0E4B     		ldr	r3, .L13
  87 0006 1878     		ldrb	r0, [r3]	@ zero_extendqisi2
  88 0008 4FF47A73 		mov	r3, #1000
  89 000c B3FBF0F3 		udiv	r3, r3, r0
  90 0010 0C4A     		ldr	r2, .L13+4
  91 0012 1068     		ldr	r0, [r2]
  92 0014 B0FBF3F0 		udiv	r0, r0, r3
  93 0018 FFF7FEFF 		bl	HAL_SYSTICK_Config
  94 001c 68B9     		cbnz	r0, .L9
  95 001e 0F2C     		cmp	r4, #15
  96 0020 01D9     		bls	.L12
  97 0022 0120     		movs	r0, #1
  98 0024 0AE0     		b	.L8
  99              	.L12:
 100 0026 0022     		movs	r2, #0
 101 0028 2146     		mov	r1, r4
 102 002a 4FF0FF30 		mov	r0, #-1
 103 002e FFF7FEFF 		bl	HAL_NVIC_SetPriority
 104 0032 054B     		ldr	r3, .L13+8
 105 0034 1C60     		str	r4, [r3]
 106 0036 0020     		movs	r0, #0
 107 0038 00E0     		b	.L8
 108              	.L9:
 109 003a 0120     		movs	r0, #1
 110              	.L8:
 111 003c 10BD     		pop	{r4, pc}
 112              	.L14:
 113 003e 00BF     		.align	2
 114              	.L13:
 115 0040 00000000 		.word	.LANCHOR0
 116 0044 00000000 		.word	SystemCoreClock
 117 0048 00000000 		.word	.LANCHOR1
 119              		.section	.text.HAL_Init,"ax",%progbits
 120              		.align	1
 121              		.global	HAL_Init
 122              		.syntax unified
ARM GAS  /tmp/ccuujG3v.s 			page 3


 123              		.thumb
 124              		.thumb_func
 125              		.fpu fpv4-sp-d16
 127              	HAL_Init:
 128              		@ args = 0, pretend = 0, frame = 0
 129              		@ frame_needed = 0, uses_anonymous_args = 0
 130 0000 08B5     		push	{r3, lr}
 131 0002 074A     		ldr	r2, .L17
 132 0004 1368     		ldr	r3, [r2]
 133 0006 43F01003 		orr	r3, r3, #16
 134 000a 1360     		str	r3, [r2]
 135 000c 0320     		movs	r0, #3
 136 000e FFF7FEFF 		bl	HAL_NVIC_SetPriorityGrouping
 137 0012 0F20     		movs	r0, #15
 138 0014 FFF7FEFF 		bl	HAL_InitTick
 139 0018 FFF7FEFF 		bl	HAL_MspInit
 140 001c 0020     		movs	r0, #0
 141 001e 08BD     		pop	{r3, pc}
 142              	.L18:
 143              		.align	2
 144              	.L17:
 145 0020 00200240 		.word	1073881088
 147              		.section	.text.HAL_IncTick,"ax",%progbits
 148              		.align	1
 149              		.weak	HAL_IncTick
 150              		.syntax unified
 151              		.thumb
 152              		.thumb_func
 153              		.fpu fpv4-sp-d16
 155              	HAL_IncTick:
 156              		@ args = 0, pretend = 0, frame = 0
 157              		@ frame_needed = 0, uses_anonymous_args = 0
 158              		@ link register save eliminated.
 159 0000 034A     		ldr	r2, .L20
 160 0002 1168     		ldr	r1, [r2]
 161 0004 034B     		ldr	r3, .L20+4
 162 0006 1B78     		ldrb	r3, [r3]	@ zero_extendqisi2
 163 0008 0B44     		add	r3, r3, r1
 164 000a 1360     		str	r3, [r2]
 165 000c 7047     		bx	lr
 166              	.L21:
 167 000e 00BF     		.align	2
 168              	.L20:
 169 0010 00000000 		.word	uwTick
 170 0014 00000000 		.word	.LANCHOR0
 172              		.section	.text.HAL_GetTick,"ax",%progbits
 173              		.align	1
 174              		.weak	HAL_GetTick
 175              		.syntax unified
 176              		.thumb
 177              		.thumb_func
 178              		.fpu fpv4-sp-d16
 180              	HAL_GetTick:
 181              		@ args = 0, pretend = 0, frame = 0
 182              		@ frame_needed = 0, uses_anonymous_args = 0
 183              		@ link register save eliminated.
 184 0000 014B     		ldr	r3, .L23
ARM GAS  /tmp/ccuujG3v.s 			page 4


 185 0002 1868     		ldr	r0, [r3]
 186 0004 7047     		bx	lr
 187              	.L24:
 188 0006 00BF     		.align	2
 189              	.L23:
 190 0008 00000000 		.word	uwTick
 192              		.section	.text.HAL_GetTickPrio,"ax",%progbits
 193              		.align	1
 194              		.global	HAL_GetTickPrio
 195              		.syntax unified
 196              		.thumb
 197              		.thumb_func
 198              		.fpu fpv4-sp-d16
 200              	HAL_GetTickPrio:
 201              		@ args = 0, pretend = 0, frame = 0
 202              		@ frame_needed = 0, uses_anonymous_args = 0
 203              		@ link register save eliminated.
 204 0000 014B     		ldr	r3, .L26
 205 0002 1868     		ldr	r0, [r3]
 206 0004 7047     		bx	lr
 207              	.L27:
 208 0006 00BF     		.align	2
 209              	.L26:
 210 0008 00000000 		.word	.LANCHOR1
 212              		.section	.text.HAL_SetTickFreq,"ax",%progbits
 213              		.align	1
 214              		.global	HAL_SetTickFreq
 215              		.syntax unified
 216              		.thumb
 217              		.thumb_func
 218              		.fpu fpv4-sp-d16
 220              	HAL_SetTickFreq:
 221              		@ args = 0, pretend = 0, frame = 0
 222              		@ frame_needed = 0, uses_anonymous_args = 0
 223 0000 10B5     		push	{r4, lr}
 224 0002 084B     		ldr	r3, .L33
 225 0004 1C78     		ldrb	r4, [r3]	@ zero_extendqisi2
 226 0006 8442     		cmp	r4, r0
 227 0008 01D1     		bne	.L32
 228 000a 0020     		movs	r0, #0
 229              	.L29:
 230 000c 10BD     		pop	{r4, pc}
 231              	.L32:
 232 000e 1870     		strb	r0, [r3]
 233 0010 054B     		ldr	r3, .L33+4
 234 0012 1868     		ldr	r0, [r3]
 235 0014 FFF7FEFF 		bl	HAL_InitTick
 236 0018 0028     		cmp	r0, #0
 237 001a F7D0     		beq	.L29
 238 001c 014B     		ldr	r3, .L33
 239 001e 1C70     		strb	r4, [r3]
 240 0020 F4E7     		b	.L29
 241              	.L34:
 242 0022 00BF     		.align	2
 243              	.L33:
 244 0024 00000000 		.word	.LANCHOR0
 245 0028 00000000 		.word	.LANCHOR1
ARM GAS  /tmp/ccuujG3v.s 			page 5


 247              		.section	.text.HAL_GetTickFreq,"ax",%progbits
 248              		.align	1
 249              		.global	HAL_GetTickFreq
 250              		.syntax unified
 251              		.thumb
 252              		.thumb_func
 253              		.fpu fpv4-sp-d16
 255              	HAL_GetTickFreq:
 256              		@ args = 0, pretend = 0, frame = 0
 257              		@ frame_needed = 0, uses_anonymous_args = 0
 258              		@ link register save eliminated.
 259 0000 014B     		ldr	r3, .L36
 260 0002 1878     		ldrb	r0, [r3]	@ zero_extendqisi2
 261 0004 7047     		bx	lr
 262              	.L37:
 263 0006 00BF     		.align	2
 264              	.L36:
 265 0008 00000000 		.word	.LANCHOR0
 267              		.section	.text.HAL_Delay,"ax",%progbits
 268              		.align	1
 269              		.weak	HAL_Delay
 270              		.syntax unified
 271              		.thumb
 272              		.thumb_func
 273              		.fpu fpv4-sp-d16
 275              	HAL_Delay:
 276              		@ args = 0, pretend = 0, frame = 0
 277              		@ frame_needed = 0, uses_anonymous_args = 0
 278 0000 38B5     		push	{r3, r4, r5, lr}
 279 0002 0446     		mov	r4, r0
 280 0004 FFF7FEFF 		bl	HAL_GetTick
 281 0008 0546     		mov	r5, r0
 282 000a B4F1FF3F 		cmp	r4, #-1
 283 000e 02D0     		beq	.L40
 284 0010 044B     		ldr	r3, .L42
 285 0012 1B78     		ldrb	r3, [r3]	@ zero_extendqisi2
 286 0014 1C44     		add	r4, r4, r3
 287              	.L40:
 288 0016 FFF7FEFF 		bl	HAL_GetTick
 289 001a 401B     		subs	r0, r0, r5
 290 001c A042     		cmp	r0, r4
 291 001e FAD3     		bcc	.L40
 292 0020 38BD     		pop	{r3, r4, r5, pc}
 293              	.L43:
 294 0022 00BF     		.align	2
 295              	.L42:
 296 0024 00000000 		.word	.LANCHOR0
 298              		.section	.text.HAL_SuspendTick,"ax",%progbits
 299              		.align	1
 300              		.weak	HAL_SuspendTick
 301              		.syntax unified
 302              		.thumb
 303              		.thumb_func
 304              		.fpu fpv4-sp-d16
 306              	HAL_SuspendTick:
 307              		@ args = 0, pretend = 0, frame = 0
 308              		@ frame_needed = 0, uses_anonymous_args = 0
ARM GAS  /tmp/ccuujG3v.s 			page 6


 309              		@ link register save eliminated.
 310 0000 024A     		ldr	r2, .L45
 311 0002 1368     		ldr	r3, [r2]
 312 0004 23F00203 		bic	r3, r3, #2
 313 0008 1360     		str	r3, [r2]
 314 000a 7047     		bx	lr
 315              	.L46:
 316              		.align	2
 317              	.L45:
 318 000c 10E000E0 		.word	-536813552
 320              		.section	.text.HAL_ResumeTick,"ax",%progbits
 321              		.align	1
 322              		.weak	HAL_ResumeTick
 323              		.syntax unified
 324              		.thumb
 325              		.thumb_func
 326              		.fpu fpv4-sp-d16
 328              	HAL_ResumeTick:
 329              		@ args = 0, pretend = 0, frame = 0
 330              		@ frame_needed = 0, uses_anonymous_args = 0
 331              		@ link register save eliminated.
 332 0000 024A     		ldr	r2, .L48
 333 0002 1368     		ldr	r3, [r2]
 334 0004 43F00203 		orr	r3, r3, #2
 335 0008 1360     		str	r3, [r2]
 336 000a 7047     		bx	lr
 337              	.L49:
 338              		.align	2
 339              	.L48:
 340 000c 10E000E0 		.word	-536813552
 342              		.section	.text.HAL_GetHalVersion,"ax",%progbits
 343              		.align	1
 344              		.global	HAL_GetHalVersion
 345              		.syntax unified
 346              		.thumb
 347              		.thumb_func
 348              		.fpu fpv4-sp-d16
 350              	HAL_GetHalVersion:
 351              		@ args = 0, pretend = 0, frame = 0
 352              		@ frame_needed = 0, uses_anonymous_args = 0
 353              		@ link register save eliminated.
 354 0000 0048     		ldr	r0, .L51
 355 0002 7047     		bx	lr
 356              	.L52:
 357              		.align	2
 358              	.L51:
 359 0004 00060501 		.word	17106432
 361              		.section	.text.HAL_GetREVID,"ax",%progbits
 362              		.align	1
 363              		.global	HAL_GetREVID
 364              		.syntax unified
 365              		.thumb
 366              		.thumb_func
 367              		.fpu fpv4-sp-d16
 369              	HAL_GetREVID:
 370              		@ args = 0, pretend = 0, frame = 0
 371              		@ frame_needed = 0, uses_anonymous_args = 0
ARM GAS  /tmp/ccuujG3v.s 			page 7


 372              		@ link register save eliminated.
 373 0000 014B     		ldr	r3, .L54
 374 0002 1868     		ldr	r0, [r3]
 375 0004 000C     		lsrs	r0, r0, #16
 376 0006 7047     		bx	lr
 377              	.L55:
 378              		.align	2
 379              	.L54:
 380 0008 002004E0 		.word	-536600576
 382              		.section	.text.HAL_GetDEVID,"ax",%progbits
 383              		.align	1
 384              		.global	HAL_GetDEVID
 385              		.syntax unified
 386              		.thumb
 387              		.thumb_func
 388              		.fpu fpv4-sp-d16
 390              	HAL_GetDEVID:
 391              		@ args = 0, pretend = 0, frame = 0
 392              		@ frame_needed = 0, uses_anonymous_args = 0
 393              		@ link register save eliminated.
 394 0000 024B     		ldr	r3, .L57
 395 0002 1868     		ldr	r0, [r3]
 396 0004 C0F30B00 		ubfx	r0, r0, #0, #12
 397 0008 7047     		bx	lr
 398              	.L58:
 399 000a 00BF     		.align	2
 400              	.L57:
 401 000c 002004E0 		.word	-536600576
 403              		.section	.text.HAL_GetUIDw0,"ax",%progbits
 404              		.align	1
 405              		.global	HAL_GetUIDw0
 406              		.syntax unified
 407              		.thumb
 408              		.thumb_func
 409              		.fpu fpv4-sp-d16
 411              	HAL_GetUIDw0:
 412              		@ args = 0, pretend = 0, frame = 0
 413              		@ frame_needed = 0, uses_anonymous_args = 0
 414              		@ link register save eliminated.
 415 0000 014B     		ldr	r3, .L60
 416 0002 1868     		ldr	r0, [r3]
 417 0004 7047     		bx	lr
 418              	.L61:
 419 0006 00BF     		.align	2
 420              	.L60:
 421 0008 ACF7FF1F 		.word	536868780
 423              		.section	.text.HAL_GetUIDw1,"ax",%progbits
 424              		.align	1
 425              		.global	HAL_GetUIDw1
 426              		.syntax unified
 427              		.thumb
 428              		.thumb_func
 429              		.fpu fpv4-sp-d16
 431              	HAL_GetUIDw1:
 432              		@ args = 0, pretend = 0, frame = 0
 433              		@ frame_needed = 0, uses_anonymous_args = 0
 434              		@ link register save eliminated.
ARM GAS  /tmp/ccuujG3v.s 			page 8


 435 0000 014B     		ldr	r3, .L63
 436 0002 1868     		ldr	r0, [r3]
 437 0004 7047     		bx	lr
 438              	.L64:
 439 0006 00BF     		.align	2
 440              	.L63:
 441 0008 B0F7FF1F 		.word	536868784
 443              		.section	.text.HAL_GetUIDw2,"ax",%progbits
 444              		.align	1
 445              		.global	HAL_GetUIDw2
 446              		.syntax unified
 447              		.thumb
 448              		.thumb_func
 449              		.fpu fpv4-sp-d16
 451              	HAL_GetUIDw2:
 452              		@ args = 0, pretend = 0, frame = 0
 453              		@ frame_needed = 0, uses_anonymous_args = 0
 454              		@ link register save eliminated.
 455 0000 014B     		ldr	r3, .L66
 456 0002 1868     		ldr	r0, [r3]
 457 0004 7047     		bx	lr
 458              	.L67:
 459 0006 00BF     		.align	2
 460              	.L66:
 461 0008 B4F7FF1F 		.word	536868788
 463              		.section	.text.HAL_DBGMCU_EnableDBGSleepMode,"ax",%progbits
 464              		.align	1
 465              		.global	HAL_DBGMCU_EnableDBGSleepMode
 466              		.syntax unified
 467              		.thumb
 468              		.thumb_func
 469              		.fpu fpv4-sp-d16
 471              	HAL_DBGMCU_EnableDBGSleepMode:
 472              		@ args = 0, pretend = 0, frame = 0
 473              		@ frame_needed = 0, uses_anonymous_args = 0
 474              		@ link register save eliminated.
 475 0000 024A     		ldr	r2, .L69
 476 0002 5368     		ldr	r3, [r2, #4]
 477 0004 43F00103 		orr	r3, r3, #1
 478 0008 5360     		str	r3, [r2, #4]
 479 000a 7047     		bx	lr
 480              	.L70:
 481              		.align	2
 482              	.L69:
 483 000c 002004E0 		.word	-536600576
 485              		.section	.text.HAL_DBGMCU_DisableDBGSleepMode,"ax",%progbits
 486              		.align	1
 487              		.global	HAL_DBGMCU_DisableDBGSleepMode
 488              		.syntax unified
 489              		.thumb
 490              		.thumb_func
 491              		.fpu fpv4-sp-d16
 493              	HAL_DBGMCU_DisableDBGSleepMode:
 494              		@ args = 0, pretend = 0, frame = 0
 495              		@ frame_needed = 0, uses_anonymous_args = 0
 496              		@ link register save eliminated.
 497 0000 024A     		ldr	r2, .L72
ARM GAS  /tmp/ccuujG3v.s 			page 9


 498 0002 5368     		ldr	r3, [r2, #4]
 499 0004 23F00103 		bic	r3, r3, #1
 500 0008 5360     		str	r3, [r2, #4]
 501 000a 7047     		bx	lr
 502              	.L73:
 503              		.align	2
 504              	.L72:
 505 000c 002004E0 		.word	-536600576
 507              		.section	.text.HAL_DBGMCU_EnableDBGStopMode,"ax",%progbits
 508              		.align	1
 509              		.global	HAL_DBGMCU_EnableDBGStopMode
 510              		.syntax unified
 511              		.thumb
 512              		.thumb_func
 513              		.fpu fpv4-sp-d16
 515              	HAL_DBGMCU_EnableDBGStopMode:
 516              		@ args = 0, pretend = 0, frame = 0
 517              		@ frame_needed = 0, uses_anonymous_args = 0
 518              		@ link register save eliminated.
 519 0000 024A     		ldr	r2, .L75
 520 0002 5368     		ldr	r3, [r2, #4]
 521 0004 43F00203 		orr	r3, r3, #2
 522 0008 5360     		str	r3, [r2, #4]
 523 000a 7047     		bx	lr
 524              	.L76:
 525              		.align	2
 526              	.L75:
 527 000c 002004E0 		.word	-536600576
 529              		.section	.text.HAL_DBGMCU_DisableDBGStopMode,"ax",%progbits
 530              		.align	1
 531              		.global	HAL_DBGMCU_DisableDBGStopMode
 532              		.syntax unified
 533              		.thumb
 534              		.thumb_func
 535              		.fpu fpv4-sp-d16
 537              	HAL_DBGMCU_DisableDBGStopMode:
 538              		@ args = 0, pretend = 0, frame = 0
 539              		@ frame_needed = 0, uses_anonymous_args = 0
 540              		@ link register save eliminated.
 541 0000 024A     		ldr	r2, .L78
 542 0002 5368     		ldr	r3, [r2, #4]
 543 0004 23F00203 		bic	r3, r3, #2
 544 0008 5360     		str	r3, [r2, #4]
 545 000a 7047     		bx	lr
 546              	.L79:
 547              		.align	2
 548              	.L78:
 549 000c 002004E0 		.word	-536600576
 551              		.section	.text.HAL_DBGMCU_EnableDBGStandbyMode,"ax",%progbits
 552              		.align	1
 553              		.global	HAL_DBGMCU_EnableDBGStandbyMode
 554              		.syntax unified
 555              		.thumb
 556              		.thumb_func
 557              		.fpu fpv4-sp-d16
 559              	HAL_DBGMCU_EnableDBGStandbyMode:
 560              		@ args = 0, pretend = 0, frame = 0
ARM GAS  /tmp/ccuujG3v.s 			page 10


 561              		@ frame_needed = 0, uses_anonymous_args = 0
 562              		@ link register save eliminated.
 563 0000 024A     		ldr	r2, .L81
 564 0002 5368     		ldr	r3, [r2, #4]
 565 0004 43F00403 		orr	r3, r3, #4
 566 0008 5360     		str	r3, [r2, #4]
 567 000a 7047     		bx	lr
 568              	.L82:
 569              		.align	2
 570              	.L81:
 571 000c 002004E0 		.word	-536600576
 573              		.section	.text.HAL_DBGMCU_DisableDBGStandbyMode,"ax",%progbits
 574              		.align	1
 575              		.global	HAL_DBGMCU_DisableDBGStandbyMode
 576              		.syntax unified
 577              		.thumb
 578              		.thumb_func
 579              		.fpu fpv4-sp-d16
 581              	HAL_DBGMCU_DisableDBGStandbyMode:
 582              		@ args = 0, pretend = 0, frame = 0
 583              		@ frame_needed = 0, uses_anonymous_args = 0
 584              		@ link register save eliminated.
 585 0000 024A     		ldr	r2, .L84
 586 0002 5368     		ldr	r3, [r2, #4]
 587 0004 23F00403 		bic	r3, r3, #4
 588 0008 5360     		str	r3, [r2, #4]
 589 000a 7047     		bx	lr
 590              	.L85:
 591              		.align	2
 592              	.L84:
 593 000c 002004E0 		.word	-536600576
 595              		.global	uwTickFreq
 596              		.global	uwTickPrio
 597              		.comm	uwTick,4,4
 598              		.section	.data.uwTickFreq,"aw"
 599              		.set	.LANCHOR0,. + 0
 602              	uwTickFreq:
 603 0000 01       		.byte	1
 604              		.section	.data.uwTickPrio,"aw"
 605              		.align	2
 606              		.set	.LANCHOR1,. + 0
 609              	uwTickPrio:
 610 0000 10000000 		.word	16
 611              		.ident	"GCC: (15:9-2019-q4-0ubuntu1) 9.2.1 20191025 (release) [ARM/arm-9-branch revision 277599]"
ARM GAS  /tmp/ccuujG3v.s 			page 11

